

Microchip Technology PIC18 LITE Macro Assembler V1.44 build -154322312 
                                                                                               Fri Jan 19 11:30:43 2018

Microchip Technology Omniscient Code Generator v1.44 (Free mode) build 201709140600
     1                           	processor	18F26K22
     2                           	fnconf	rparam,??,?,0
     3                           	opt	pw 120
     4                           	opt	lm
     5                           	psect	cinit,global,reloc=2,class=CODE,delta=1
     6                           	psect	bssCOMRAM,global,class=COMRAM,space=1,delta=1,noexec
     7                           	psect	bssBANK0,global,class=BANK0,space=1,delta=1,lowdata,noexec
     8                           	psect	cstackBANK0,global,class=BANK0,space=1,delta=1,noexec
     9                           	psect	cstackCOMRAM,global,class=COMRAM,space=1,delta=1,noexec
    10                           	psect	text0,global,reloc=2,class=CODE,delta=1
    11                           	psect	text1,global,reloc=2,class=CODE,delta=1
    12                           	psect	text2,global,reloc=2,class=CODE,delta=1
    13                           	psect	text3,global,reloc=2,class=CODE,delta=1
    14                           	psect	text4,global,reloc=2,class=CODE,delta=1
    15                           	psect	text5,global,reloc=2,class=CODE,delta=1
    16                           	psect	text6,global,reloc=2,class=CODE,delta=1
    17                           	psect	intcodelo,global,reloc=2,class=CODE,delta=1
    18                           	psect	intcode,global,reloc=2,class=CODE,delta=1
    19                           	psect	intcode_body,global,reloc=2,class=CODE,delta=1
    20                           	psect	intsave_regs,global,class=BIGRAM,space=1,delta=1,noexec
    21                           	psect	rparam,global,class=COMRAM,space=1,delta=1,noexec
    22                           	psect	temp,global,ovrld,common,class=COMRAM,space=1,delta=1
    23  0000                     
    24                           ; Version 1.44
    25                           ; Generated 14/09/2017 GMT
    26                           ; 
    27                           ; Copyright © 2017, Microchip Technology Inc. and its subsidiaries ("Microchip")
    28                           ; All rights reserved.
    29                           ; 
    30                           ; This software is developed by Microchip Technology Inc. and its subsidiaries ("Microch
      +                          ip").
    31                           ; 
    32                           ; Redistribution and use in source and binary forms, with or without modification, are
    33                           ; permitted provided that the following conditions are met:
    34                           ; 
    35                           ;     1. Redistributions of source code must retain the above copyright notice, this lis
      +                          t of
    36                           ;        conditions and the following disclaimer.
    37                           ; 
    38                           ;     2. Redistributions in binary form must reproduce the above copyright notice, this 
      +                          list
    39                           ;        of conditions and the following disclaimer in the documentation and/or other
    40                           ;        materials provided with the distribution.
    41                           ; 
    42                           ;     3. Microchip's name may not be used to endorse or promote products derived from th
      +                          is
    43                           ;        software without specific prior written permission.
    44                           ; 
    45                           ; THIS SOFTWARE IS PROVIDED BY MICROCHIP "AS IS" AND ANY EXPRESS OR IMPLIED WARRANTIES,
    46                           ; INCLUDING, BUT NOT LIMITED TO, THE IMPLIED WARRANTIES OF MERCHANTABILITY AND FITNESS F
      +                          OR
    47                           ; PURPOSE ARE DISCLAIMED.  IN NO EVENT SHALL MICROCHIP BE LIABLE FOR ANY DIRECT, INDIREC
      +                          T,
    48                           ; INCIDENTAL, SPECIAL, EXEMPLARY, OR CONSEQUENTIAL DAMAGES (INCLUDING BUT NOT LIMITED TO
    49                           ; PROCUREMENT OF SUBSTITUTE GOODS OR SERVICES; LOSS OF USE, DATA OR PROFITS; OR BUSINESS
    50                           ; INTERRUPTION) HOWSOEVER CAUSED AND ON ANY THEORY OF LIABILITY, WHETHER IN CONTRACT, ST
      +                          RICT
    51                           ; LIABILITY, OR TORT (INCLUDING NEGLIGENCE OR OTHERWISE) ARISING IN ANY WAY OUT OF THE U
      +                          SE OF
    52                           ; THIS SOFTWARE, EVEN IF ADVISED OF THE POSSIBILITY OF SUCH DAMAGE.
    53                           ; 
    54                           ; 
    55                           ; Code-generator required, PIC18F26K22 Definitions
    56                           ; 
    57                           ; SFR Addresses
    58  0000                     _ANSELC	set	3898
    59  0000                     _OSCCON	set	4051
    60  0000                     _SSPBUF	set	4041
    61  0000                     _RCREG1	set	4014
    62  0000                     _TXREG1	set	4013
    63  0000                     _TXSTA1bits	set	4012
    64  0000                     _TMR0L	set	4054
    65  0000                     _T0CON	set	4053
    66  0000                     _LATCbits	set	3979
    67  0000                     _PIR1bits	set	3998
    68  0000                     _SSPCON1	set	4038
    69  0000                     _SSP1STATbits	set	4039
    70  0000                     _SPBRG1	set	4015
    71  0000                     _RCSTA1	set	4011
    72  0000                     _TXSTA1	set	4012
    73  0000                     _BAUDCON1	set	4024
    74  0000                     _TRISC	set	3988
    75  0000                     _TRISB	set	3987
    76  0000                     _TRISA	set	3986
    77                           
    78                           ; #config settings
    79  0000                     
    80                           	psect	cinit
    81  000D72                     __pcinit:
    82                           	opt stack 0
    83  000D72                     start_initialization:
    84                           	opt stack 0
    85  000D72                     __initialization:
    86                           	opt stack 0
    87                           
    88                           ; Clear objects allocated to BANK0 (48 bytes)
    89  000D72  EE00  F0D0         	lfsr	0,__pbssBANK0
    90  000D76  0E30               	movlw	48
    91  000D78                     clear_0:
    92  000D78  6AEE               	clrf	postinc0,c
    93  000D7A  06E8               	decf	wreg,f,c
    94  000D7C  E1FD               	bnz	clear_0
    95                           
    96                           ; Clear objects allocated to COMRAM (18 bytes)
    97  000D7E  EE00  F028         	lfsr	0,__pbssCOMRAM
    98  000D82  0E12               	movlw	18
    99  000D84                     clear_1:
   100  000D84  6AEE               	clrf	postinc0,c
   101  000D86  06E8               	decf	wreg,f,c
   102  000D88  E1FD               	bnz	clear_1
   103  000D8A                     end_of_initialization:
   104                           	opt stack 0
   105  000D8A                     __end_of__initialization:
   106                           	opt stack 0
   107  000D8A  903A               	bcf	int$flags,0,c	;clear compiler interrupt flag (level 1)
   108  000D8C  923A               	bcf	int$flags,1,c	;clear compiler interrupt flag (level 2)
   109  000D8E  0E00               	movlw	low (__Lmediumconst shr (0+16))
   110  000D90  6EF8               	movwf	tblptru,c
   111  000D92  0100               	movlb	0
   112  000D94  EF25  F006         	goto	_main	;jump to C main() function
   113                           tblptru	equ	0xFF8
   114                           postinc0	equ	0xFEE
   115                           wreg	equ	0xFE8
   116                           
   117                           	psect	bssCOMRAM
   118  000028                     __pbssCOMRAM:
   119                           	opt stack 0
   120  000028                     gestionserie@yearUniteprov:
   121                           	opt stack 0
   122  000028                     	ds	2
   123  00002A                     gestionserie@yearDizaineprov:
   124                           	opt stack 0
   125  00002A                     	ds	2
   126  00002C                     gestionserie@monthUniteprov:
   127                           	opt stack 0
   128  00002C                     	ds	2
   129  00002E                     gestionserie@monthDizaineprov:
   130                           	opt stack 0
   131  00002E                     	ds	2
   132  000030                     gestionserie@dayUniteprov:
   133                           	opt stack 0
   134  000030                     	ds	2
   135  000032                     gestionserie@dayDizaineprov:
   136                           	opt stack 0
   137  000032                     	ds	2
   138  000034                     gestionserie@long1prov9:
   139                           	opt stack 0
   140  000034                     	ds	2
   141  000036                     gestionserie@long1prov8:
   142                           	opt stack 0
   143  000036                     	ds	2
   144  000038                     gestionserie@long1prov7:
   145                           	opt stack 0
   146  000038                     	ds	2
   147                           tblptru	equ	0xFF8
   148                           postinc0	equ	0xFEE
   149                           wreg	equ	0xFE8
   150                           
   151                           	psect	bssBANK0
   152  0000D0                     __pbssBANK0:
   153                           	opt stack 0
   154  0000D0                     gestionserie@long1prov6:
   155                           	opt stack 0
   156  0000D0                     	ds	2
   157  0000D2                     gestionserie@long1provP:
   158                           	opt stack 0
   159  0000D2                     	ds	2
   160  0000D4                     gestionserie@long1prov5:
   161                           	opt stack 0
   162  0000D4                     	ds	2
   163  0000D6                     gestionserie@long1prov4:
   164                           	opt stack 0
   165  0000D6                     	ds	2
   166  0000D8                     gestionserie@long1prov3:
   167                           	opt stack 0
   168  0000D8                     	ds	2
   169  0000DA                     gestionserie@long1prov2:
   170                           	opt stack 0
   171  0000DA                     	ds	2
   172  0000DC                     gestionserie@long1prov1:
   173                           	opt stack 0
   174  0000DC                     	ds	2
   175  0000DE                     gestionserie@lat1prov8:
   176                           	opt stack 0
   177  0000DE                     	ds	2
   178  0000E0                     gestionserie@lat1prov7:
   179                           	opt stack 0
   180  0000E0                     	ds	2
   181  0000E2                     gestionserie@lat1prov6:
   182                           	opt stack 0
   183  0000E2                     	ds	2
   184  0000E4                     gestionserie@lat1prov5:
   185                           	opt stack 0
   186  0000E4                     	ds	2
   187  0000E6                     gestionserie@lat1provP:
   188                           	opt stack 0
   189  0000E6                     	ds	2
   190  0000E8                     gestionserie@lat1prov4:
   191                           	opt stack 0
   192  0000E8                     	ds	2
   193  0000EA                     gestionserie@lat1prov3:
   194                           	opt stack 0
   195  0000EA                     	ds	2
   196  0000EC                     gestionserie@lat1prov2:
   197                           	opt stack 0
   198  0000EC                     	ds	2
   199  0000EE                     gestionserie@lat1prov1:
   200                           	opt stack 0
   201  0000EE                     	ds	2
   202  0000F0                     gestionserie@secondeUniteprov:
   203                           	opt stack 0
   204  0000F0                     	ds	2
   205  0000F2                     gestionserie@secondeDizaineprov:
   206                           	opt stack 0
   207  0000F2                     	ds	2
   208  0000F4                     gestionserie@minuteDizaineprov:
   209                           	opt stack 0
   210  0000F4                     	ds	2
   211  0000F6                     gestionserie@minuteUniteprov:
   212                           	opt stack 0
   213  0000F6                     	ds	2
   214  0000F8                     gestionserie@heureUniteprov:
   215                           	opt stack 0
   216  0000F8                     	ds	2
   217  0000FA                     gestionserie@heureDizaineprov:
   218                           	opt stack 0
   219  0000FA                     	ds	2
   220  0000FC                     gestionserie@N_Sprov:
   221                           	opt stack 0
   222  0000FC                     	ds	1
   223  0000FD                     gestionserie@E_Wprov:
   224                           	opt stack 0
   225  0000FD                     	ds	1
   226  0000FE                     gestionserie@valideprov:
   227                           	opt stack 0
   228  0000FE                     	ds	1
   229  0000FF                     gestionserie@mae_serie:
   230                           	opt stack 0
   231  0000FF                     	ds	1
   232                           tblptru	equ	0xFF8
   233                           postinc0	equ	0xFEE
   234                           wreg	equ	0xFE8
   235                           
   236                           	psect	cstackBANK0
   237  000060                     __pcstackBANK0:
   238                           	opt stack 0
   239  000060                     gestionserie@i:
   240                           	opt stack 0
   241                           
   242                           ; 2 bytes @ 0x0
   243  000060                     	ds	2
   244  000062                     gestionserie@i_437:
   245                           	opt stack 0
   246                           
   247                           ; 2 bytes @ 0x2
   248  000062                     	ds	2
   249  000064                     gestionserie@i_438:
   250                           	opt stack 0
   251                           
   252                           ; 2 bytes @ 0x4
   253  000064                     	ds	2
   254  000066                     gestionserie@i_439:
   255                           	opt stack 0
   256                           
   257                           ; 2 bytes @ 0x6
   258  000066                     	ds	2
   259  000068                     gestionserie@i_440:
   260                           	opt stack 0
   261                           
   262                           ; 2 bytes @ 0x8
   263  000068                     	ds	2
   264  00006A                     gestionserie@i_441:
   265                           	opt stack 0
   266                           
   267                           ; 2 bytes @ 0xA
   268  00006A                     	ds	2
   269  00006C                     gestionserie@i_442:
   270                           	opt stack 0
   271                           
   272                           ; 2 bytes @ 0xC
   273  00006C                     	ds	2
   274  00006E                     gestionserie@i_443:
   275                           	opt stack 0
   276                           
   277                           ; 2 bytes @ 0xE
   278  00006E                     	ds	2
   279  000070                     gestionserie@i_444:
   280                           	opt stack 0
   281                           
   282                           ; 2 bytes @ 0x10
   283  000070                     	ds	2
   284  000072                     gestionserie@i_445:
   285                           	opt stack 0
   286                           
   287                           ; 2 bytes @ 0x12
   288  000072                     	ds	2
   289  000074                     gestionserie@i_446:
   290                           	opt stack 0
   291                           
   292                           ; 2 bytes @ 0x14
   293  000074                     	ds	2
   294  000076                     gestionserie@i_447:
   295                           	opt stack 0
   296                           
   297                           ; 2 bytes @ 0x16
   298  000076                     	ds	2
   299  000078                     gestionserie@i_448:
   300                           	opt stack 0
   301                           
   302                           ; 2 bytes @ 0x18
   303  000078                     	ds	2
   304  00007A                     gestionserie@i_449:
   305                           	opt stack 0
   306                           
   307                           ; 2 bytes @ 0x1A
   308  00007A                     	ds	2
   309  00007C                     gestionserie@i_450:
   310                           	opt stack 0
   311                           
   312                           ; 2 bytes @ 0x1C
   313  00007C                     	ds	2
   314  00007E                     gestionserie@i_451:
   315                           	opt stack 0
   316                           
   317                           ; 2 bytes @ 0x1E
   318  00007E                     	ds	2
   319  000080                     gestionserie@i_452:
   320                           	opt stack 0
   321                           
   322                           ; 2 bytes @ 0x20
   323  000080                     	ds	2
   324  000082                     gestionserie@i_453:
   325                           	opt stack 0
   326                           
   327                           ; 2 bytes @ 0x22
   328  000082                     	ds	2
   329  000084                     gestionserie@i_454:
   330                           	opt stack 0
   331                           
   332                           ; 2 bytes @ 0x24
   333  000084                     	ds	2
   334  000086                     gestionserie@i_455:
   335                           	opt stack 0
   336                           
   337                           ; 2 bytes @ 0x26
   338  000086                     	ds	2
   339  000088                     gestionserie@i_456:
   340                           	opt stack 0
   341                           
   342                           ; 2 bytes @ 0x28
   343  000088                     	ds	2
   344  00008A                     gestionserie@i_457:
   345                           	opt stack 0
   346                           
   347                           ; 2 bytes @ 0x2A
   348  00008A                     	ds	2
   349  00008C                     gestionserie@i_458:
   350                           	opt stack 0
   351                           
   352                           ; 2 bytes @ 0x2C
   353  00008C                     	ds	2
   354  00008E                     gestionserie@i_459:
   355                           	opt stack 0
   356                           
   357                           ; 2 bytes @ 0x2E
   358  00008E                     	ds	2
   359  000090                     gestionserie@i_460:
   360                           	opt stack 0
   361                           
   362                           ; 2 bytes @ 0x30
   363  000090                     	ds	2
   364  000092                     gestionserie@i_461:
   365                           	opt stack 0
   366                           
   367                           ; 2 bytes @ 0x32
   368  000092                     	ds	2
   369  000094                     gestionserie@i_462:
   370                           	opt stack 0
   371                           
   372                           ; 2 bytes @ 0x34
   373  000094                     	ds	2
   374  000096                     gestionserie@i_463:
   375                           	opt stack 0
   376                           
   377                           ; 2 bytes @ 0x36
   378  000096                     	ds	2
   379  000098                     gestionserie@i_464:
   380                           	opt stack 0
   381                           
   382                           ; 2 bytes @ 0x38
   383  000098                     	ds	2
   384  00009A                     gestionserie@i_465:
   385                           	opt stack 0
   386                           
   387                           ; 2 bytes @ 0x3A
   388  00009A                     	ds	2
   389  00009C                     gestionserie@i_466:
   390                           	opt stack 0
   391                           
   392                           ; 2 bytes @ 0x3C
   393  00009C                     	ds	2
   394  00009E                     gestionserie@i_467:
   395                           	opt stack 0
   396                           
   397                           ; 2 bytes @ 0x3E
   398  00009E                     	ds	2
   399  0000A0                     gestionserie@i_468:
   400                           	opt stack 0
   401                           
   402                           ; 2 bytes @ 0x40
   403  0000A0                     	ds	2
   404  0000A2                     gestionserie@i_469:
   405                           	opt stack 0
   406                           
   407                           ; 2 bytes @ 0x42
   408  0000A2                     	ds	2
   409  0000A4                     gestionserie@i_470:
   410                           	opt stack 0
   411                           
   412                           ; 2 bytes @ 0x44
   413  0000A4                     	ds	2
   414  0000A6                     gestionserie@i_471:
   415                           	opt stack 0
   416                           
   417                           ; 2 bytes @ 0x46
   418  0000A6                     	ds	2
   419  0000A8                     gestionserie@i_472:
   420                           	opt stack 0
   421                           
   422                           ; 2 bytes @ 0x48
   423  0000A8                     	ds	2
   424  0000AA                     gestionserie@i_473:
   425                           	opt stack 0
   426                           
   427                           ; 2 bytes @ 0x4A
   428  0000AA                     	ds	2
   429  0000AC                     gestionserie@i_474:
   430                           	opt stack 0
   431                           
   432                           ; 2 bytes @ 0x4C
   433  0000AC                     	ds	2
   434  0000AE                     gestionserie@i_475:
   435                           	opt stack 0
   436                           
   437                           ; 2 bytes @ 0x4E
   438  0000AE                     	ds	2
   439  0000B0                     gestionserie@i_476:
   440                           	opt stack 0
   441                           
   442                           ; 2 bytes @ 0x50
   443  0000B0                     	ds	2
   444  0000B2                     gestionserie@ch:
   445                           	opt stack 0
   446                           
   447                           ; 1 bytes @ 0x52
   448  0000B2                     	ds	1
   449  0000B3                     main@heure:
   450                           	opt stack 0
   451                           
   452                           ; 2 bytes @ 0x53
   453  0000B3                     	ds	2
   454  0000B5                     main@minute:
   455                           	opt stack 0
   456                           
   457                           ; 2 bytes @ 0x55
   458  0000B5                     	ds	2
   459  0000B7                     main@seconde:
   460                           	opt stack 0
   461                           
   462                           ; 2 bytes @ 0x57
   463  0000B7                     	ds	2
   464  0000B9                     main@valide:
   465                           	opt stack 0
   466                           
   467                           ; 2 bytes @ 0x59
   468  0000B9                     	ds	2
   469  0000BB                     main@lat1:
   470                           	opt stack 0
   471                           
   472                           ; 2 bytes @ 0x5B
   473  0000BB                     	ds	2
   474  0000BD                     main@lat2:
   475                           	opt stack 0
   476                           
   477                           ; 2 bytes @ 0x5D
   478  0000BD                     	ds	2
   479  0000BF                     main@long1:
   480                           	opt stack 0
   481                           
   482                           ; 2 bytes @ 0x5F
   483  0000BF                     	ds	2
   484  0000C1                     main@long2:
   485                           	opt stack 0
   486                           
   487                           ; 2 bytes @ 0x61
   488  0000C1                     	ds	2
   489  0000C3                     main@E_W:
   490                           	opt stack 0
   491                           
   492                           ; 2 bytes @ 0x63
   493  0000C3                     	ds	2
   494  0000C5                     main@N_S:
   495                           	opt stack 0
   496                           
   497                           ; 2 bytes @ 0x65
   498  0000C5                     	ds	2
   499  0000C7                     main@year:
   500                           	opt stack 0
   501                           
   502                           ; 2 bytes @ 0x67
   503  0000C7                     	ds	2
   504  0000C9                     main@month:
   505                           	opt stack 0
   506                           
   507                           ; 2 bytes @ 0x69
   508  0000C9                     	ds	2
   509  0000CB                     main@day:
   510                           	opt stack 0
   511                           
   512                           ; 2 bytes @ 0x6B
   513  0000CB                     	ds	2
   514  0000CD                     main@cpt:
   515                           	opt stack 0
   516                           
   517                           ; 2 bytes @ 0x6D
   518  0000CD                     	ds	2
   519  0000CF                     main@Data:
   520                           	opt stack 0
   521                           
   522                           ; 1 bytes @ 0x6F
   523  0000CF                     	ds	1
   524                           tblptru	equ	0xFF8
   525                           postinc0	equ	0xFEE
   526                           wreg	equ	0xFE8
   527                           
   528                           	psect	cstackCOMRAM
   529  000001                     __pcstackCOMRAM:
   530                           	opt stack 0
   531  000001                     ??_high_isr:
   532  000001                     
   533                           ; 1 bytes @ 0x0
   534  000001                     	ds	18
   535  000013                     ??_low_isr:
   536                           
   537                           ; 1 bytes @ 0x12
   538  000013                     	ds	21
   539                           tblptru	equ	0xFF8
   540                           postinc0	equ	0xFEE
   541                           wreg	equ	0xFE8
   542                           
   543 ;;
   544 ;;Main: autosize = 0, tempsize = 0, incstack = 0, save=0
   545 ;;
   546 ;; *************** function _main *****************
   547 ;; Defined at:
   548 ;;		line 752 in file "main.c"
   549 ;; Parameters:    Size  Location     Type
   550 ;;		None
   551 ;; Auto vars:     Size  Location     Type
   552 ;;  cpt             2  109[BANK0 ] unsigned int 
   553 ;;  day             2  107[BANK0 ] PTR unsigned char 
   554 ;;		 -> NULL(0), 
   555 ;;  month           2  105[BANK0 ] PTR unsigned char 
   556 ;;		 -> NULL(0), 
   557 ;;  year            2  103[BANK0 ] PTR unsigned char 
   558 ;;		 -> NULL(0), 
   559 ;;  N_S             2  101[BANK0 ] PTR unsigned char 
   560 ;;		 -> NULL(0), 
   561 ;;  E_W             2   99[BANK0 ] PTR unsigned char 
   562 ;;		 -> NULL(0), 
   563 ;;  long2           2   97[BANK0 ] PTR unsigned char 
   564 ;;		 -> NULL(0), 
   565 ;;  long1           2   95[BANK0 ] PTR unsigned char 
   566 ;;		 -> NULL(0), 
   567 ;;  lat2            2   93[BANK0 ] PTR unsigned char 
   568 ;;		 -> NULL(0), 
   569 ;;  lat1            2   91[BANK0 ] PTR unsigned char 
   570 ;;		 -> NULL(0), 
   571 ;;  valide          2   89[BANK0 ] PTR unsigned char 
   572 ;;		 -> NULL(0), 
   573 ;;  seconde         2   87[BANK0 ] PTR unsigned char 
   574 ;;		 -> NULL(0), 
   575 ;;  minute          2   85[BANK0 ] PTR unsigned char 
   576 ;;		 -> NULL(0), 
   577 ;;  heure           2   83[BANK0 ] PTR unsigned char 
   578 ;;		 -> NULL(0), 
   579 ;;  Data            1  111[BANK0 ] unsigned char 
   580 ;; Return value:  Size  Location     Type
   581 ;;                  1    wreg      void 
   582 ;; Registers used:
   583 ;;		wreg, status,2, status,0, cstack
   584 ;; Tracked objects:
   585 ;;		On entry : 0/0
   586 ;;		On exit  : 0/0
   587 ;;		Unchanged: 0/0
   588 ;; Data sizes:     COMRAM   BANK0   BANK1   BANK2   BANK3   BANK4   BANK5   BANK6   BANK7   BANK8   BANK9  BANK10  BANK1
      +1  BANK12  BANK13  BANK14  BANK15
   589 ;;      Params:         0       0       0       0       0       0       0       0       0       0       0       0       
      +0       0       0       0       0
   590 ;;      Locals:         0      29       0       0       0       0       0       0       0       0       0       0       
      +0       0       0       0       0
   591 ;;      Temps:          0       0       0       0       0       0       0       0       0       0       0       0       
      +0       0       0       0       0
   592 ;;      Totals:         0      29       0       0       0       0       0       0       0       0       0       0       
      +0       0       0       0       0
   593 ;;Total ram usage:       29 bytes
   594 ;; Hardware stack levels required when called:    3
   595 ;; This function calls:
   596 ;;		_ConfigureOscillator
   597 ;;		_gestionserie
   598 ;;		_init
   599 ;;		_init_Timer
   600 ;;		_init_eusart
   601 ;;		_init_spi
   602 ;; This function is called by:
   603 ;;		Startup code after reset
   604 ;; This function uses a non-reentrant model
   605 ;;
   606                           
   607                           	psect	text0
   608  000C4A                     __ptext0:
   609                           	opt stack 0
   610  000C4A                     _main:
   611                           	opt stack 28
   612                           
   613                           ;main.c: 753: char* heure=0;
   614                           
   615                           ;incstack = 0
   616  000C4A  0E00               	movlw	0
   617  000C4C  0100               	movlb	0	; () banked
   618  000C4E  6FB3               	movwf	main@heure& (0+255),b
   619  000C50  0E00               	movlw	0
   620  000C52  6FB4               	movwf	(main@heure+1)& (0+255),b
   621                           
   622                           ;main.c: 754: char* minute=0;
   623  000C54  0E00               	movlw	0
   624  000C56  6FB5               	movwf	main@minute& (0+255),b
   625  000C58  0E00               	movlw	0
   626  000C5A  6FB6               	movwf	(main@minute+1)& (0+255),b
   627                           
   628                           ;main.c: 755: char* seconde=0;
   629  000C5C  0E00               	movlw	0
   630  000C5E  6FB7               	movwf	main@seconde& (0+255),b
   631  000C60  0E00               	movlw	0
   632  000C62  6FB8               	movwf	(main@seconde+1)& (0+255),b
   633                           
   634                           ;main.c: 756: char* valide=0;
   635  000C64  0E00               	movlw	0
   636  000C66  6FB9               	movwf	main@valide& (0+255),b
   637  000C68  0E00               	movlw	0
   638  000C6A  6FBA               	movwf	(main@valide+1)& (0+255),b
   639                           
   640                           ;main.c: 757: char* lat1=0;
   641  000C6C  0E00               	movlw	0
   642  000C6E  6FBB               	movwf	main@lat1& (0+255),b
   643  000C70  0E00               	movlw	0
   644  000C72  6FBC               	movwf	(main@lat1+1)& (0+255),b
   645                           
   646                           ;main.c: 758: char* lat2=0;
   647  000C74  0E00               	movlw	0
   648  000C76  6FBD               	movwf	main@lat2& (0+255),b
   649  000C78  0E00               	movlw	0
   650  000C7A  6FBE               	movwf	(main@lat2+1)& (0+255),b
   651                           
   652                           ;main.c: 759: char* long1=0;
   653  000C7C  0E00               	movlw	0
   654  000C7E  6FBF               	movwf	main@long1& (0+255),b
   655  000C80  0E00               	movlw	0
   656  000C82  6FC0               	movwf	(main@long1+1)& (0+255),b
   657                           
   658                           ;main.c: 760: char* long2=0;
   659  000C84  0E00               	movlw	0
   660  000C86  6FC1               	movwf	main@long2& (0+255),b
   661  000C88  0E00               	movlw	0
   662  000C8A  6FC2               	movwf	(main@long2+1)& (0+255),b
   663                           
   664                           ;main.c: 761: char* E_W=0;
   665  000C8C  0E00               	movlw	0
   666  000C8E  6FC3               	movwf	main@E_W& (0+255),b
   667  000C90  0E00               	movlw	0
   668  000C92  6FC4               	movwf	(main@E_W+1)& (0+255),b
   669                           
   670                           ;main.c: 762: char* N_S=0;
   671  000C94  0E00               	movlw	0
   672  000C96  6FC5               	movwf	main@N_S& (0+255),b
   673  000C98  0E00               	movlw	0
   674  000C9A  6FC6               	movwf	(main@N_S+1)& (0+255),b
   675                           
   676                           ;main.c: 763: char* year=0;
   677  000C9C  0E00               	movlw	0
   678  000C9E  6FC7               	movwf	main@year& (0+255),b
   679  000CA0  0E00               	movlw	0
   680  000CA2  6FC8               	movwf	(main@year+1)& (0+255),b
   681                           
   682                           ;main.c: 764: char* month=0;
   683  000CA4  0E00               	movlw	0
   684  000CA6  6FC9               	movwf	main@month& (0+255),b
   685  000CA8  0E00               	movlw	0
   686  000CAA  6FCA               	movwf	(main@month+1)& (0+255),b
   687                           
   688                           ;main.c: 765: char* day=0;
   689  000CAC  0E00               	movlw	0
   690  000CAE  6FCB               	movwf	main@day& (0+255),b
   691  000CB0  0E00               	movlw	0
   692  000CB2  6FCC               	movwf	(main@day+1)& (0+255),b
   693                           
   694                           ; BSR set to: 0
   695                           ;main.c: 767: unsigned int cpt = 0;
   696  000CB4  0E00               	movlw	0
   697  000CB6  6FCE               	movwf	(main@cpt+1)& (0+255),b
   698  000CB8  0E00               	movlw	0
   699  000CBA  6FCD               	movwf	main@cpt& (0+255),b
   700                           
   701                           ; BSR set to: 0
   702                           ;main.c: 768: unsigned char Data = 0;
   703  000CBC  0E00               	movlw	0
   704  000CBE  6FCF               	movwf	main@Data& (0+255),b
   705                           
   706                           ; BSR set to: 0
   707                           ;main.c: 779: ConfigureOscillator();
   708  000CC0  ECEC  F006         	call	_ConfigureOscillator	;wreg free
   709                           
   710                           ;main.c: 782: init_Timer();
   711  000CC4  ECE7  F006         	call	_init_Timer	;wreg free
   712                           
   713                           ;main.c: 785: init();
   714  000CC8  ECE0  F006         	call	_init	;wreg free
   715                           
   716                           ;main.c: 788: init_eusart();
   717  000CCC  ECCC  F006         	call	_init_eusart	;wreg free
   718                           
   719                           ;main.c: 791: init_spi();
   720  000CD0  ECD8  F006         	call	_init_spi	;wreg free
   721  000CD4                     
   722                           ;main.c: 800: if(PIR1bits.RC1IF) {gestionserie();}
   723  000CD4  AA9E               	btfss	3998,5,c	;volatile
   724  000CD6  D7FE               	goto	l408
   725  000CD8  EC65  F000         	call	_gestionserie	;wreg free
   726  000CDC  D7FB               	goto	l408
   727  000CDE                     __end_of_main:
   728                           	opt stack 0
   729                           tblptru	equ	0xFF8
   730                           postinc0	equ	0xFEE
   731                           wreg	equ	0xFE8
   732                           
   733 ;; *************** function _init_spi *****************
   734 ;; Defined at:
   735 ;;		line 128 in file "main.c"
   736 ;; Parameters:    Size  Location     Type
   737 ;;		None
   738 ;; Auto vars:     Size  Location     Type
   739 ;;		None
   740 ;; Return value:  Size  Location     Type
   741 ;;                  1    wreg      void 
   742 ;; Registers used:
   743 ;;		wreg, status,2
   744 ;; Tracked objects:
   745 ;;		On entry : 0/0
   746 ;;		On exit  : 0/0
   747 ;;		Unchanged: 0/0
   748 ;; Data sizes:     COMRAM   BANK0   BANK1   BANK2   BANK3   BANK4   BANK5   BANK6   BANK7   BANK8   BANK9  BANK10  BANK1
      +1  BANK12  BANK13  BANK14  BANK15
   749 ;;      Params:         0       0       0       0       0       0       0       0       0       0       0       0       
      +0       0       0       0       0
   750 ;;      Locals:         0       0       0       0       0       0       0       0       0       0       0       0       
      +0       0       0       0       0
   751 ;;      Temps:          0       0       0       0       0       0       0       0       0       0       0       0       
      +0       0       0       0       0
   752 ;;      Totals:         0       0       0       0       0       0       0       0       0       0       0       0       
      +0       0       0       0       0
   753 ;;Total ram usage:        0 bytes
   754 ;; Hardware stack levels used:    1
   755 ;; Hardware stack levels required when called:    2
   756 ;; This function calls:
   757 ;;		Nothing
   758 ;; This function is called by:
   759 ;;		_main
   760 ;; This function uses a non-reentrant model
   761 ;;
   762                           
   763                           	psect	text1
   764  000DB0                     __ptext1:
   765                           	opt stack 0
   766  000DB0                     _init_spi:
   767                           	opt stack 28
   768                           
   769                           ;main.c: 131: SSP1STATbits.SMP = 1;
   770                           
   771                           ;incstack = 0
   772  000DB0  8EC7               	bsf	4039,7,c	;volatile
   773                           
   774                           ;main.c: 132: SSP1STATbits.CKE = 1;
   775  000DB2  8CC7               	bsf	4039,6,c	;volatile
   776                           
   777                           ;main.c: 133: SSPCON1 = 0x20;
   778  000DB4  0E20               	movlw	32
   779  000DB6  6EC6               	movwf	4038,c	;volatile
   780                           
   781                           ;main.c: 135: PIR1bits.SSPIF = 0;
   782  000DB8  969E               	bcf	3998,3,c	;volatile
   783                           
   784                           ;main.c: 137: LATCbits.LATC2 = 1;
   785  000DBA  848B               	bsf	3979,2,c	;volatile
   786                           
   787                           ;main.c: 138: LATCbits.LATC3 = 0;
   788  000DBC  968B               	bcf	3979,3,c	;volatile
   789  000DBE  0012               	return		;funcret
   790  000DC0                     __end_of_init_spi:
   791                           	opt stack 0
   792                           tblptru	equ	0xFF8
   793                           postinc0	equ	0xFEE
   794                           wreg	equ	0xFE8
   795                           
   796 ;; *************** function _init_eusart *****************
   797 ;; Defined at:
   798 ;;		line 111 in file "main.c"
   799 ;; Parameters:    Size  Location     Type
   800 ;;		None
   801 ;; Auto vars:     Size  Location     Type
   802 ;;		None
   803 ;; Return value:  Size  Location     Type
   804 ;;                  1    wreg      void 
   805 ;; Registers used:
   806 ;;		wreg, status,2, status,0
   807 ;; Tracked objects:
   808 ;;		On entry : 0/0
   809 ;;		On exit  : 0/0
   810 ;;		Unchanged: 0/0
   811 ;; Data sizes:     COMRAM   BANK0   BANK1   BANK2   BANK3   BANK4   BANK5   BANK6   BANK7   BANK8   BANK9  BANK10  BANK1
      +1  BANK12  BANK13  BANK14  BANK15
   812 ;;      Params:         0       0       0       0       0       0       0       0       0       0       0       0       
      +0       0       0       0       0
   813 ;;      Locals:         0       0       0       0       0       0       0       0       0       0       0       0       
      +0       0       0       0       0
   814 ;;      Temps:          0       0       0       0       0       0       0       0       0       0       0       0       
      +0       0       0       0       0
   815 ;;      Totals:         0       0       0       0       0       0       0       0       0       0       0       0       
      +0       0       0       0       0
   816 ;;Total ram usage:        0 bytes
   817 ;; Hardware stack levels used:    1
   818 ;; Hardware stack levels required when called:    2
   819 ;; This function calls:
   820 ;;		Nothing
   821 ;; This function is called by:
   822 ;;		_main
   823 ;; This function uses a non-reentrant model
   824 ;;
   825                           
   826                           	psect	text2
   827  000D98                     __ptext2:
   828                           	opt stack 0
   829  000D98                     _init_eusart:
   830                           	opt stack 28
   831                           
   832                           ;main.c: 113: BAUDCON1 = 0b00000000;
   833                           
   834                           ;incstack = 0
   835  000D98  0E00               	movlw	0
   836  000D9A  6EB8               	movwf	4024,c	;volatile
   837                           
   838                           ;main.c: 114: TXSTA1 = 0b00100100;
   839  000D9C  0E24               	movlw	36
   840  000D9E  6EAC               	movwf	4012,c	;volatile
   841                           
   842                           ;main.c: 115: RCSTA1 = 0b10010000;
   843  000DA0  0E90               	movlw	144
   844  000DA2  6EAB               	movwf	4011,c	;volatile
   845                           
   846                           ;main.c: 116: SPBRG1 = 0b00011001;
   847  000DA4  0E19               	movlw	25
   848  000DA6  6EAF               	movwf	4015,c	;volatile
   849                           
   850                           ;main.c: 117: ANSELC&=0x3F;
   851  000DA8  0E3F               	movlw	63
   852  000DAA  010F               	movlb	15	; () banked
   853  000DAC  173A               	andwf	58,f,b	;volatile
   854                           
   855                           ; BSR set to: 15
   856  000DAE  0012               	return		;funcret
   857  000DB0                     __end_of_init_eusart:
   858                           	opt stack 0
   859                           tblptru	equ	0xFF8
   860                           postinc0	equ	0xFEE
   861                           wreg	equ	0xFE8
   862                           
   863 ;; *************** function _init_Timer *****************
   864 ;; Defined at:
   865 ;;		line 141 in file "main.c"
   866 ;; Parameters:    Size  Location     Type
   867 ;;		None
   868 ;; Auto vars:     Size  Location     Type
   869 ;;		None
   870 ;; Return value:  Size  Location     Type
   871 ;;                  1    wreg      void 
   872 ;; Registers used:
   873 ;;		wreg, status,2
   874 ;; Tracked objects:
   875 ;;		On entry : 0/0
   876 ;;		On exit  : 0/0
   877 ;;		Unchanged: 0/0
   878 ;; Data sizes:     COMRAM   BANK0   BANK1   BANK2   BANK3   BANK4   BANK5   BANK6   BANK7   BANK8   BANK9  BANK10  BANK1
      +1  BANK12  BANK13  BANK14  BANK15
   879 ;;      Params:         0       0       0       0       0       0       0       0       0       0       0       0       
      +0       0       0       0       0
   880 ;;      Locals:         0       0       0       0       0       0       0       0       0       0       0       0       
      +0       0       0       0       0
   881 ;;      Temps:          0       0       0       0       0       0       0       0       0       0       0       0       
      +0       0       0       0       0
   882 ;;      Totals:         0       0       0       0       0       0       0       0       0       0       0       0       
      +0       0       0       0       0
   883 ;;Total ram usage:        0 bytes
   884 ;; Hardware stack levels used:    1
   885 ;; Hardware stack levels required when called:    2
   886 ;; This function calls:
   887 ;;		Nothing
   888 ;; This function is called by:
   889 ;;		_main
   890 ;; This function uses a non-reentrant model
   891 ;;
   892                           
   893                           	psect	text3
   894  000DCE                     __ptext3:
   895                           	opt stack 0
   896  000DCE                     _init_Timer:
   897                           	opt stack 28
   898                           
   899                           ;main.c: 144: T0CON = 0xC7;
   900                           
   901                           ; BSR set to: 15
   902                           ;incstack = 0
   903  000DCE  0EC7               	movlw	199
   904  000DD0  6ED5               	movwf	4053,c	;volatile
   905                           
   906                           ;main.c: 145: TMR0L = (256-195);
   907  000DD2  0E3D               	movlw	61
   908  000DD4  6ED6               	movwf	4054,c	;volatile
   909  000DD6  0012               	return		;funcret
   910  000DD8                     __end_of_init_Timer:
   911                           	opt stack 0
   912                           tblptru	equ	0xFF8
   913                           postinc0	equ	0xFEE
   914                           wreg	equ	0xFE8
   915                           
   916 ;; *************** function _init *****************
   917 ;; Defined at:
   918 ;;		line 99 in file "main.c"
   919 ;; Parameters:    Size  Location     Type
   920 ;;		None
   921 ;; Auto vars:     Size  Location     Type
   922 ;;		None
   923 ;; Return value:  Size  Location     Type
   924 ;;                  1    wreg      void 
   925 ;; Registers used:
   926 ;;		wreg, status,2
   927 ;; Tracked objects:
   928 ;;		On entry : 0/0
   929 ;;		On exit  : 0/0
   930 ;;		Unchanged: 0/0
   931 ;; Data sizes:     COMRAM   BANK0   BANK1   BANK2   BANK3   BANK4   BANK5   BANK6   BANK7   BANK8   BANK9  BANK10  BANK1
      +1  BANK12  BANK13  BANK14  BANK15
   932 ;;      Params:         0       0       0       0       0       0       0       0       0       0       0       0       
      +0       0       0       0       0
   933 ;;      Locals:         0       0       0       0       0       0       0       0       0       0       0       0       
      +0       0       0       0       0
   934 ;;      Temps:          0       0       0       0       0       0       0       0       0       0       0       0       
      +0       0       0       0       0
   935 ;;      Totals:         0       0       0       0       0       0       0       0       0       0       0       0       
      +0       0       0       0       0
   936 ;;Total ram usage:        0 bytes
   937 ;; Hardware stack levels used:    1
   938 ;; Hardware stack levels required when called:    2
   939 ;; This function calls:
   940 ;;		Nothing
   941 ;; This function is called by:
   942 ;;		_main
   943 ;; This function uses a non-reentrant model
   944 ;;
   945                           
   946                           	psect	text4
   947  000DC0                     __ptext4:
   948                           	opt stack 0
   949  000DC0                     _init:
   950                           	opt stack 28
   951                           
   952                           ;main.c: 101: TRISA = 0b00100000;
   953                           
   954                           ;incstack = 0
   955  000DC0  0E20               	movlw	32
   956  000DC2  6E92               	movwf	3986,c	;volatile
   957                           
   958                           ;main.c: 102: TRISB = 0b11000010;
   959  000DC4  0EC2               	movlw	194
   960  000DC6  6E93               	movwf	3987,c	;volatile
   961                           
   962                           ;main.c: 103: TRISC = 0b11010000;
   963  000DC8  0ED0               	movlw	208
   964  000DCA  6E94               	movwf	3988,c	;volatile
   965  000DCC  0012               	return		;funcret
   966  000DCE                     __end_of_init:
   967                           	opt stack 0
   968                           tblptru	equ	0xFF8
   969                           postinc0	equ	0xFEE
   970                           wreg	equ	0xFE8
   971                           
   972 ;; *************** function _gestionserie *****************
   973 ;; Defined at:
   974 ;;		line 237 in file "main.c"
   975 ;; Parameters:    Size  Location     Type
   976 ;;		None
   977 ;; Auto vars:     Size  Location     Type
   978 ;;  i               2   80[BANK0 ] unsigned int 
   979 ;;  i               2   78[BANK0 ] unsigned int 
   980 ;;  i               2   76[BANK0 ] unsigned int 
   981 ;;  i               2   74[BANK0 ] unsigned int 
   982 ;;  i               2   72[BANK0 ] unsigned int 
   983 ;;  i               2   70[BANK0 ] unsigned int 
   984 ;;  i               2   68[BANK0 ] unsigned int 
   985 ;;  i               2   66[BANK0 ] unsigned int 
   986 ;;  i               2   64[BANK0 ] unsigned int 
   987 ;;  i               2   62[BANK0 ] unsigned int 
   988 ;;  i               2   60[BANK0 ] unsigned int 
   989 ;;  i               2   58[BANK0 ] unsigned int 
   990 ;;  i               2   56[BANK0 ] unsigned int 
   991 ;;  i               2   54[BANK0 ] unsigned int 
   992 ;;  i               2   52[BANK0 ] unsigned int 
   993 ;;  i               2   50[BANK0 ] unsigned int 
   994 ;;  i               2   48[BANK0 ] unsigned int 
   995 ;;  i               2   46[BANK0 ] unsigned int 
   996 ;;  i               2   44[BANK0 ] unsigned int 
   997 ;;  i               2   42[BANK0 ] unsigned int 
   998 ;;  i               2   40[BANK0 ] unsigned int 
   999 ;;  i               2   38[BANK0 ] unsigned int 
  1000 ;;  i               2   36[BANK0 ] unsigned int 
  1001 ;;  i               2   34[BANK0 ] unsigned int 
  1002 ;;  i               2   32[BANK0 ] unsigned int 
  1003 ;;  i               2   30[BANK0 ] unsigned int 
  1004 ;;  i               2   28[BANK0 ] unsigned int 
  1005 ;;  i               2   26[BANK0 ] unsigned int 
  1006 ;;  i               2   24[BANK0 ] unsigned int 
  1007 ;;  i               2   22[BANK0 ] unsigned int 
  1008 ;;  i               2   20[BANK0 ] unsigned int 
  1009 ;;  i               2   18[BANK0 ] unsigned int 
  1010 ;;  i               2   16[BANK0 ] unsigned int 
  1011 ;;  i               2   14[BANK0 ] unsigned int 
  1012 ;;  i               2   12[BANK0 ] unsigned int 
  1013 ;;  i               2   10[BANK0 ] unsigned int 
  1014 ;;  i               2    8[BANK0 ] unsigned int 
  1015 ;;  i               2    6[BANK0 ] unsigned int 
  1016 ;;  i               2    4[BANK0 ] unsigned int 
  1017 ;;  i               2    2[BANK0 ] unsigned int 
  1018 ;;  i               2    0[BANK0 ] unsigned int 
  1019 ;;  trame_write    24    0        unsigned char [24]
  1020 ;;  ch              1   82[BANK0 ] unsigned char 
  1021 ;; Return value:  Size  Location     Type
  1022 ;;                  1    wreg      void 
  1023 ;; Registers used:
  1024 ;;		wreg, status,2, status,0
  1025 ;; Tracked objects:
  1026 ;;		On entry : 0/0
  1027 ;;		On exit  : 0/0
  1028 ;;		Unchanged: 0/0
  1029 ;; Data sizes:     COMRAM   BANK0   BANK1   BANK2   BANK3   BANK4   BANK5   BANK6   BANK7   BANK8   BANK9  BANK10  BANK1
      +1  BANK12  BANK13  BANK14  BANK15
  1030 ;;      Params:         0       0       0       0       0       0       0       0       0       0       0       0       
      +0       0       0       0       0
  1031 ;;      Locals:         0      83       0       0       0       0       0       0       0       0       0       0       
      +0       0       0       0       0
  1032 ;;      Temps:          0       0       0       0       0       0       0       0       0       0       0       0       
      +0       0       0       0       0
  1033 ;;      Totals:         0      83       0       0       0       0       0       0       0       0       0       0       
      +0       0       0       0       0
  1034 ;;Total ram usage:       83 bytes
  1035 ;; Hardware stack levels used:    1
  1036 ;; Hardware stack levels required when called:    2
  1037 ;; This function calls:
  1038 ;;		Nothing
  1039 ;; This function is called by:
  1040 ;;		_main
  1041 ;; This function uses a non-reentrant model
  1042 ;;
  1043                           
  1044                           	psect	text5
  1045  0000CA                     __ptext5:
  1046                           	opt stack 0
  1047  0000CA                     _gestionserie:
  1048                           	opt stack 28
  1049                           
  1050                           ;main.c: 239: static unsigned char mae_serie=0;
  1051                           ;main.c: 241: static unsigned int heureDizaineprov=0;
  1052                           ;main.c: 242: static unsigned int heureUniteprov=0;
  1053                           ;main.c: 243: static unsigned int minuteUniteprov=0;
  1054                           ;main.c: 244: static unsigned int minuteDizaineprov=0;
  1055                           ;main.c: 245: static unsigned int minuteUniteprov=0;
  1056                           ;main.c: 247: static unsigned int secondeDizaineprov=0;
  1057                           ;main.c: 248: static unsigned int secondeUniteprov=0;
  1058                           ;main.c: 249: static unsigned char valideprov=0;
  1059                           ;main.c: 251: static unsigned int lat1prov1=0;
  1060                           
  1061                           ;incstack = 0
  1062  0000CA  CFAE F0B2          	movff	4014,gestionserie@ch	;volatile
  1063                           
  1064                           ;main.c: 290: if (ch=='$'){mae_serie=1;return;}
  1065  0000CE  0E24               	movlw	36
  1066  0000D0  0100               	movlb	0	; () banked
  1067  0000D2  19B2               	xorwf	gestionserie@ch& (0+255),w,b
  1068  0000D4  A4D8               	btfss	status,2,c
  1069  0000D6  EF7A  F005         	goto	l168
  1070                           
  1071                           ; BSR set to: 0
  1072  0000DA  0E01               	movlw	1
  1073  0000DC  6FFF               	movwf	gestionserie@mae_serie& (0+255),b
  1074                           
  1075                           ; BSR set to: 0
  1076  0000DE  0012               	return	
  1077  0000E0                     
  1078                           ; BSR set to: 0
  1079                           ;main.c: 295: TXREG1 = '0';
  1080                           
  1081                           ; BSR set to: 0
  1082  0000E0  0E30               	movlw	48
  1083  0000E2  6EAD               	movwf	4013,c	;volatile
  1084                           
  1085                           ;main.c: 296: TXREG1 = '\n';
  1086  0000E4  0E0A               	movlw	10
  1087  0000E6  6EAD               	movwf	4013,c	;volatile
  1088                           
  1089                           ;main.c: 297: TXREG1 = '\r';
  1090  0000E8  0E0D               	movlw	13
  1091  0000EA  6EAD               	movwf	4013,c	;volatile
  1092                           
  1093                           ;main.c: 300: break;
  1094  0000EC  0012               	return	
  1095  0000EE                     
  1096                           ; BSR set to: 0
  1097                           ;main.c: 302: TXREG1 = '1';
  1098                           
  1099                           ; BSR set to: 0
  1100  0000EE  0E31               	movlw	49
  1101  0000F0  6EAD               	movwf	4013,c	;volatile
  1102                           
  1103                           ; BSR set to: 0
  1104                           ;main.c: 303: if(ch=='G'){mae_serie++;break;}
  1105  0000F2  0E47               	movlw	71
  1106  0000F4  19B2               	xorwf	gestionserie@ch& (0+255),w,b
  1107  0000F6  A4D8               	btfss	status,2,c
  1108  0000F8  D002               	goto	l172
  1109                           
  1110                           ; BSR set to: 0
  1111  0000FA  2BFF               	incf	gestionserie@mae_serie& (0+255),f,b
  1112  0000FC  0012               	return	
  1113  0000FE                     l172:
  1114                           
  1115                           ; BSR set to: 0
  1116                           ;main.c: 304: mae_serie=0;
  1117                           
  1118                           ; BSR set to: 0
  1119  0000FE  0E00               	movlw	0
  1120  000100  6FFF               	movwf	gestionserie@mae_serie& (0+255),b
  1121                           
  1122                           ;main.c: 305: break;
  1123  000102  0012               	return	
  1124  000104                     
  1125                           ; BSR set to: 0
  1126                           ;main.c: 307: TXREG1 = '2';
  1127                           
  1128                           ; BSR set to: 0
  1129  000104  0E32               	movlw	50
  1130  000106  6EAD               	movwf	4013,c	;volatile
  1131                           
  1132                           ; BSR set to: 0
  1133                           ;main.c: 308: if(ch=='P'){mae_serie++;break;}
  1134  000108  0E50               	movlw	80
  1135  00010A  19B2               	xorwf	gestionserie@ch& (0+255),w,b
  1136  00010C  A4D8               	btfss	status,2,c
  1137  00010E  D002               	goto	l174
  1138                           
  1139                           ; BSR set to: 0
  1140  000110  2BFF               	incf	gestionserie@mae_serie& (0+255),f,b
  1141  000112  0012               	return	
  1142  000114                     l174:
  1143                           
  1144                           ; BSR set to: 0
  1145                           ;main.c: 309: mae_serie=0;
  1146                           
  1147                           ; BSR set to: 0
  1148  000114  0E00               	movlw	0
  1149  000116  6FFF               	movwf	gestionserie@mae_serie& (0+255),b
  1150                           
  1151                           ;main.c: 310: break;
  1152  000118  0012               	return	
  1153  00011A                     
  1154                           ; BSR set to: 0
  1155                           ;main.c: 312: TXREG1 = '3';
  1156                           
  1157                           ; BSR set to: 0
  1158  00011A  0E33               	movlw	51
  1159  00011C  6EAD               	movwf	4013,c	;volatile
  1160                           
  1161                           ; BSR set to: 0
  1162                           ;main.c: 313: if(ch=='R'){mae_serie++;break;}
  1163  00011E  0E52               	movlw	82
  1164  000120  19B2               	xorwf	gestionserie@ch& (0+255),w,b
  1165  000122  A4D8               	btfss	status,2,c
  1166  000124  D002               	goto	l176
  1167                           
  1168                           ; BSR set to: 0
  1169  000126  2BFF               	incf	gestionserie@mae_serie& (0+255),f,b
  1170  000128  0012               	return	
  1171  00012A                     l176:
  1172                           
  1173                           ; BSR set to: 0
  1174                           ;main.c: 314: mae_serie=0;
  1175                           
  1176                           ; BSR set to: 0
  1177  00012A  0E00               	movlw	0
  1178  00012C  6FFF               	movwf	gestionserie@mae_serie& (0+255),b
  1179                           
  1180                           ;main.c: 315: break;
  1181  00012E  0012               	return	
  1182  000130                     
  1183                           ; BSR set to: 0
  1184                           ;main.c: 317: TXREG1 = '4';
  1185                           
  1186                           ; BSR set to: 0
  1187  000130  0E34               	movlw	52
  1188  000132  6EAD               	movwf	4013,c	;volatile
  1189                           
  1190                           ; BSR set to: 0
  1191                           ;main.c: 318: if(ch==','){mae_serie++;break;}
  1192  000134  0E2C               	movlw	44
  1193  000136  19B2               	xorwf	gestionserie@ch& (0+255),w,b
  1194  000138  A4D8               	btfss	status,2,c
  1195  00013A  0012               	return	
  1196                           
  1197                           ; BSR set to: 0
  1198  00013C  2BFF               	incf	gestionserie@mae_serie& (0+255),f,b
  1199                           
  1200                           ; BSR set to: 0
  1201                           ;main.c: 319: break;
  1202  00013E  0012               	return	
  1203  000140                     
  1204                           ; BSR set to: 0
  1205                           ;main.c: 321: TXREG1 = '5';
  1206                           
  1207                           ; BSR set to: 0
  1208  000140  0E35               	movlw	53
  1209  000142  6EAD               	movwf	4013,c	;volatile
  1210                           
  1211                           ; BSR set to: 0
  1212                           ;main.c: 322: if((ch<'0')||(ch>'2')){mae_serie=0;break;}
  1213  000144  0E2F               	movlw	47
  1214  000146  65B2               	cpfsgt	gestionserie@ch& (0+255),b
  1215  000148  D003               	goto	u3310
  1216                           
  1217                           ; BSR set to: 0
  1218  00014A  0E32               	movlw	50
  1219  00014C  65B2               	cpfsgt	gestionserie@ch& (0+255),b
  1220  00014E  D003               	goto	l180
  1221  000150                     u3310:
  1222                           
  1223                           ; BSR set to: 0
  1224                           
  1225                           ; BSR set to: 0
  1226  000150  0E00               	movlw	0
  1227  000152  6FFF               	movwf	gestionserie@mae_serie& (0+255),b
  1228  000154  0012               	return	
  1229  000156                     l180:
  1230                           
  1231                           ; BSR set to: 0
  1232                           ;main.c: 325: heureDizaineprov=ch;
  1233  000156  C0B2  F0FA         	movff	gestionserie@ch,gestionserie@heureDizaineprov
  1234  00015A  6BFB               	clrf	(gestionserie@heureDizaineprov+1)& (0+255),b
  1235                           
  1236                           ; BSR set to: 0
  1237                           ;main.c: 326: mae_serie++;
  1238  00015C  2BFF               	incf	gestionserie@mae_serie& (0+255),f,b
  1239                           
  1240                           ;main.c: 327: break;
  1241  00015E  0012               	return	
  1242  000160                     
  1243                           ; BSR set to: 0
  1244                           ;main.c: 329: TXREG1 = '6';
  1245                           
  1246                           ; BSR set to: 0
  1247  000160  0E36               	movlw	54
  1248  000162  6EAD               	movwf	4013,c	;volatile
  1249                           
  1250                           ; BSR set to: 0
  1251                           ;main.c: 330: if((ch<'0')||(ch>'9')){mae_serie=0;break;}
  1252  000164  0E2F               	movlw	47
  1253  000166  65B2               	cpfsgt	gestionserie@ch& (0+255),b
  1254  000168  D003               	goto	u3330
  1255                           
  1256                           ; BSR set to: 0
  1257  00016A  0E39               	movlw	57
  1258  00016C  65B2               	cpfsgt	gestionserie@ch& (0+255),b
  1259  00016E  D003               	goto	l184
  1260  000170                     u3330:
  1261                           
  1262                           ; BSR set to: 0
  1263                           
  1264                           ; BSR set to: 0
  1265  000170  0E00               	movlw	0
  1266  000172  6FFF               	movwf	gestionserie@mae_serie& (0+255),b
  1267  000174  0012               	return	
  1268  000176                     l184:
  1269                           
  1270                           ; BSR set to: 0
  1271                           ;main.c: 332: heureUniteprov=ch+1;
  1272                           
  1273                           ; BSR set to: 0
  1274  000176  0E01               	movlw	1
  1275  000178  25B2               	addwf	gestionserie@ch& (0+255),w,b
  1276  00017A  6FF8               	movwf	gestionserie@heureUniteprov& (0+255),b
  1277  00017C  6BF9               	clrf	(gestionserie@heureUniteprov+1)& (0+255),b
  1278  00017E  0E00               	movlw	0
  1279  000180  23F9               	addwfc	(gestionserie@heureUniteprov+1)& (0+255),f,b
  1280                           
  1281                           ; BSR set to: 0
  1282                           ;main.c: 333: mae_serie++;
  1283  000182  2BFF               	incf	gestionserie@mae_serie& (0+255),f,b
  1284                           
  1285                           ;main.c: 334: break;
  1286  000184  0012               	return	
  1287  000186                     
  1288                           ; BSR set to: 0
  1289                           ;main.c: 336: TXREG1 = '7';
  1290                           
  1291                           ; BSR set to: 0
  1292  000186  0E37               	movlw	55
  1293  000188  6EAD               	movwf	4013,c	;volatile
  1294                           
  1295                           ; BSR set to: 0
  1296                           ;main.c: 337: if((ch<'0')||(ch>'5')){mae_serie=0;break;}
  1297  00018A  0E2F               	movlw	47
  1298  00018C  65B2               	cpfsgt	gestionserie@ch& (0+255),b
  1299  00018E  D003               	goto	u3350
  1300                           
  1301                           ; BSR set to: 0
  1302  000190  0E35               	movlw	53
  1303  000192  65B2               	cpfsgt	gestionserie@ch& (0+255),b
  1304  000194  D003               	goto	l188
  1305  000196                     u3350:
  1306                           
  1307                           ; BSR set to: 0
  1308                           
  1309                           ; BSR set to: 0
  1310  000196  0E00               	movlw	0
  1311  000198  6FFF               	movwf	gestionserie@mae_serie& (0+255),b
  1312  00019A  0012               	return	
  1313  00019C                     l188:
  1314                           
  1315                           ; BSR set to: 0
  1316                           ;main.c: 338: minuteDizaineprov=ch;
  1317  00019C  C0B2  F0F4         	movff	gestionserie@ch,gestionserie@minuteDizaineprov
  1318  0001A0  6BF5               	clrf	(gestionserie@minuteDizaineprov+1)& (0+255),b
  1319                           
  1320                           ; BSR set to: 0
  1321                           ;main.c: 339: mae_serie++;
  1322  0001A2  2BFF               	incf	gestionserie@mae_serie& (0+255),f,b
  1323                           
  1324                           ;main.c: 340: break;
  1325  0001A4  0012               	return	
  1326  0001A6                     
  1327                           ; BSR set to: 0
  1328                           ;main.c: 342: TXREG1 = '8';
  1329                           
  1330                           ; BSR set to: 0
  1331  0001A6  0E38               	movlw	56
  1332  0001A8  6EAD               	movwf	4013,c	;volatile
  1333                           
  1334                           ; BSR set to: 0
  1335                           ;main.c: 343: if((ch<'0')||(ch>'9')){mae_serie=0;break;}
  1336  0001AA  0E2F               	movlw	47
  1337  0001AC  65B2               	cpfsgt	gestionserie@ch& (0+255),b
  1338  0001AE  D003               	goto	u3370
  1339                           
  1340                           ; BSR set to: 0
  1341  0001B0  0E39               	movlw	57
  1342  0001B2  65B2               	cpfsgt	gestionserie@ch& (0+255),b
  1343  0001B4  D003               	goto	l192
  1344  0001B6                     u3370:
  1345                           
  1346                           ; BSR set to: 0
  1347                           
  1348                           ; BSR set to: 0
  1349  0001B6  0E00               	movlw	0
  1350  0001B8  6FFF               	movwf	gestionserie@mae_serie& (0+255),b
  1351  0001BA  0012               	return	
  1352  0001BC                     l192:
  1353                           
  1354                           ; BSR set to: 0
  1355                           ;main.c: 344: minuteUniteprov=ch;
  1356  0001BC  C0B2  F0F6         	movff	gestionserie@ch,gestionserie@minuteUniteprov
  1357  0001C0  6BF7               	clrf	(gestionserie@minuteUniteprov+1)& (0+255),b
  1358                           
  1359                           ; BSR set to: 0
  1360                           ;main.c: 345: mae_serie++;
  1361  0001C2  2BFF               	incf	gestionserie@mae_serie& (0+255),f,b
  1362                           
  1363                           ;main.c: 346: break;
  1364  0001C4  0012               	return	
  1365  0001C6                     
  1366                           ; BSR set to: 0
  1367                           ;main.c: 348: TXREG1 = '9';
  1368                           
  1369                           ; BSR set to: 0
  1370  0001C6  0E39               	movlw	57
  1371  0001C8  6EAD               	movwf	4013,c	;volatile
  1372                           
  1373                           ; BSR set to: 0
  1374                           ;main.c: 349: if((ch<'0')||(ch>'5')){mae_serie=0;break;}
  1375  0001CA  0E2F               	movlw	47
  1376  0001CC  65B2               	cpfsgt	gestionserie@ch& (0+255),b
  1377  0001CE  D003               	goto	u3390
  1378                           
  1379                           ; BSR set to: 0
  1380  0001D0  0E35               	movlw	53
  1381  0001D2  65B2               	cpfsgt	gestionserie@ch& (0+255),b
  1382  0001D4  D003               	goto	l196
  1383  0001D6                     u3390:
  1384                           
  1385                           ; BSR set to: 0
  1386                           
  1387                           ; BSR set to: 0
  1388  0001D6  0E00               	movlw	0
  1389  0001D8  6FFF               	movwf	gestionserie@mae_serie& (0+255),b
  1390  0001DA  0012               	return	
  1391  0001DC                     l196:
  1392                           
  1393                           ; BSR set to: 0
  1394                           ;main.c: 352: secondeDizaineprov=ch;
  1395  0001DC  C0B2  F0F2         	movff	gestionserie@ch,gestionserie@secondeDizaineprov
  1396  0001E0  6BF3               	clrf	(gestionserie@secondeDizaineprov+1)& (0+255),b
  1397                           
  1398                           ; BSR set to: 0
  1399                           ;main.c: 353: mae_serie++;
  1400  0001E2  2BFF               	incf	gestionserie@mae_serie& (0+255),f,b
  1401                           
  1402                           ;main.c: 354: break;
  1403  0001E4  0012               	return	
  1404  0001E6                     
  1405                           ; BSR set to: 0
  1406                           ;main.c: 356: TXREG1 = 'A';
  1407                           
  1408                           ; BSR set to: 0
  1409  0001E6  0E41               	movlw	65
  1410  0001E8  6EAD               	movwf	4013,c	;volatile
  1411                           
  1412                           ; BSR set to: 0
  1413                           ;main.c: 357: if((ch<'0')||(ch>'9')){mae_serie=0;break;}
  1414  0001EA  0E2F               	movlw	47
  1415  0001EC  65B2               	cpfsgt	gestionserie@ch& (0+255),b
  1416  0001EE  D003               	goto	u3410
  1417                           
  1418                           ; BSR set to: 0
  1419  0001F0  0E39               	movlw	57
  1420  0001F2  65B2               	cpfsgt	gestionserie@ch& (0+255),b
  1421  0001F4  D003               	goto	l200
  1422  0001F6                     u3410:
  1423                           
  1424                           ; BSR set to: 0
  1425                           
  1426                           ; BSR set to: 0
  1427  0001F6  0E00               	movlw	0
  1428  0001F8  6FFF               	movwf	gestionserie@mae_serie& (0+255),b
  1429  0001FA  0012               	return	
  1430  0001FC                     l200:
  1431                           
  1432                           ; BSR set to: 0
  1433                           ;main.c: 359: secondeUniteprov=ch;
  1434  0001FC  C0B2  F0F0         	movff	gestionserie@ch,gestionserie@secondeUniteprov
  1435  000200  6BF1               	clrf	(gestionserie@secondeUniteprov+1)& (0+255),b
  1436                           
  1437                           ; BSR set to: 0
  1438                           ;main.c: 360: mae_serie++;
  1439  000202  2BFF               	incf	gestionserie@mae_serie& (0+255),f,b
  1440                           
  1441                           ;main.c: 361: break;
  1442  000204  0012               	return	
  1443  000206                     
  1444                           ; BSR set to: 0
  1445                           ;main.c: 363: TXREG1 = 'B';
  1446                           
  1447                           ; BSR set to: 0
  1448  000206  0E42               	movlw	66
  1449  000208  6EAD               	movwf	4013,c	;volatile
  1450                           
  1451                           ; BSR set to: 0
  1452                           ;main.c: 364: if(ch==','){mae_serie++;break;}
  1453  00020A  0E2C               	movlw	44
  1454  00020C  19B2               	xorwf	gestionserie@ch& (0+255),w,b
  1455  00020E  A4D8               	btfss	status,2,c
  1456  000210  0012               	return	
  1457                           
  1458                           ; BSR set to: 0
  1459  000212  2BFF               	incf	gestionserie@mae_serie& (0+255),f,b
  1460                           
  1461                           ; BSR set to: 0
  1462                           ;main.c: 365: break;
  1463  000214  0012               	return	
  1464  000216                     
  1465                           ; BSR set to: 0
  1466                           ;main.c: 367: TXREG1 = 'C';
  1467                           
  1468                           ; BSR set to: 0
  1469  000216  0E43               	movlw	67
  1470  000218  6EAD               	movwf	4013,c	;volatile
  1471                           
  1472                           ; BSR set to: 0
  1473                           ;main.c: 368: if(ch!='A'){mae_serie=0;break;}
  1474  00021A  0E41               	movlw	65
  1475  00021C  19B2               	xorwf	gestionserie@ch& (0+255),w,b
  1476  00021E  B4D8               	btfsc	status,2,c
  1477  000220  D003               	goto	l206
  1478                           
  1479                           ; BSR set to: 0
  1480  000222  0E00               	movlw	0
  1481  000224  6FFF               	movwf	gestionserie@mae_serie& (0+255),b
  1482  000226  0012               	return	
  1483  000228                     l206:
  1484                           
  1485                           ; BSR set to: 0
  1486                           ;main.c: 369: valideprov=ch;
  1487  000228  C0B2  F0FE         	movff	gestionserie@ch,gestionserie@valideprov
  1488                           
  1489                           ; BSR set to: 0
  1490                           ;main.c: 370: mae_serie++;
  1491  00022C  2BFF               	incf	gestionserie@mae_serie& (0+255),f,b
  1492                           
  1493                           ;main.c: 371: break;
  1494  00022E  0012               	return	
  1495  000230                     
  1496                           ; BSR set to: 0
  1497                           ;main.c: 373: TXREG1 = 'D';
  1498                           
  1499                           ; BSR set to: 0
  1500  000230  0E44               	movlw	68
  1501  000232  6EAD               	movwf	4013,c	;volatile
  1502                           
  1503                           ; BSR set to: 0
  1504                           ;main.c: 374: if(ch==','){mae_serie++;break;}
  1505  000234  0E2C               	movlw	44
  1506  000236  19B2               	xorwf	gestionserie@ch& (0+255),w,b
  1507  000238  A4D8               	btfss	status,2,c
  1508  00023A  D002               	goto	l208
  1509                           
  1510                           ; BSR set to: 0
  1511  00023C  2BFF               	incf	gestionserie@mae_serie& (0+255),f,b
  1512  00023E  0012               	return	
  1513  000240                     l208:
  1514                           
  1515                           ; BSR set to: 0
  1516                           ;main.c: 375: mae_serie=0;
  1517                           
  1518                           ; BSR set to: 0
  1519  000240  0E00               	movlw	0
  1520  000242  6FFF               	movwf	gestionserie@mae_serie& (0+255),b
  1521                           
  1522                           ;main.c: 376: break;
  1523  000244  0012               	return	
  1524  000246                     
  1525                           ; BSR set to: 0
  1526                           ;main.c: 378: TXREG1 = 'E';
  1527                           
  1528                           ; BSR set to: 0
  1529  000246  0E45               	movlw	69
  1530  000248  6EAD               	movwf	4013,c	;volatile
  1531                           
  1532                           ; BSR set to: 0
  1533                           ;main.c: 379: if((ch<'0')||(ch>'9')){mae_serie=0;break;}
  1534  00024A  0E2F               	movlw	47
  1535  00024C  65B2               	cpfsgt	gestionserie@ch& (0+255),b
  1536  00024E  D003               	goto	u3460
  1537                           
  1538                           ; BSR set to: 0
  1539  000250  0E39               	movlw	57
  1540  000252  65B2               	cpfsgt	gestionserie@ch& (0+255),b
  1541  000254  D003               	goto	l210
  1542  000256                     u3460:
  1543                           
  1544                           ; BSR set to: 0
  1545                           
  1546                           ; BSR set to: 0
  1547  000256  0E00               	movlw	0
  1548  000258  6FFF               	movwf	gestionserie@mae_serie& (0+255),b
  1549  00025A  0012               	return	
  1550  00025C                     l210:
  1551                           
  1552                           ; BSR set to: 0
  1553                           ;main.c: 382: lat1prov1=ch;
  1554  00025C  C0B2  F0EE         	movff	gestionserie@ch,gestionserie@lat1prov1
  1555  000260  6BEF               	clrf	(gestionserie@lat1prov1+1)& (0+255),b
  1556                           
  1557                           ; BSR set to: 0
  1558                           ;main.c: 383: mae_serie++;
  1559  000262  2BFF               	incf	gestionserie@mae_serie& (0+255),f,b
  1560                           
  1561                           ;main.c: 384: break;
  1562  000264  0012               	return	
  1563  000266                     
  1564                           ; BSR set to: 0
  1565                           ;main.c: 386: TXREG1 = 'F';
  1566                           
  1567                           ; BSR set to: 0
  1568  000266  0E46               	movlw	70
  1569  000268  6EAD               	movwf	4013,c	;volatile
  1570                           
  1571                           ; BSR set to: 0
  1572                           ;main.c: 387: if((ch<'0')||(ch>'9')){mae_serie=0;break;}
  1573  00026A  0E2F               	movlw	47
  1574  00026C  65B2               	cpfsgt	gestionserie@ch& (0+255),b
  1575  00026E  D003               	goto	u3480
  1576                           
  1577                           ; BSR set to: 0
  1578  000270  0E39               	movlw	57
  1579  000272  65B2               	cpfsgt	gestionserie@ch& (0+255),b
  1580  000274  D003               	goto	l214
  1581  000276                     u3480:
  1582                           
  1583                           ; BSR set to: 0
  1584                           
  1585                           ; BSR set to: 0
  1586  000276  0E00               	movlw	0
  1587  000278  6FFF               	movwf	gestionserie@mae_serie& (0+255),b
  1588  00027A  0012               	return	
  1589  00027C                     l214:
  1590                           
  1591                           ; BSR set to: 0
  1592                           ;main.c: 389: lat1prov2=ch;
  1593  00027C  C0B2  F0EC         	movff	gestionserie@ch,gestionserie@lat1prov2
  1594  000280  6BED               	clrf	(gestionserie@lat1prov2+1)& (0+255),b
  1595                           
  1596                           ; BSR set to: 0
  1597                           ;main.c: 390: mae_serie++;
  1598  000282  2BFF               	incf	gestionserie@mae_serie& (0+255),f,b
  1599                           
  1600                           ;main.c: 391: break;
  1601  000284  0012               	return	
  1602  000286                     
  1603                           ; BSR set to: 0
  1604                           ;main.c: 393: TXREG1 = 'G';
  1605                           
  1606                           ; BSR set to: 0
  1607  000286  0E47               	movlw	71
  1608  000288  6EAD               	movwf	4013,c	;volatile
  1609                           
  1610                           ; BSR set to: 0
  1611                           ;main.c: 394: if((ch<'0')||(ch>'9')){mae_serie=0;break;}
  1612  00028A  0E2F               	movlw	47
  1613  00028C  65B2               	cpfsgt	gestionserie@ch& (0+255),b
  1614  00028E  D003               	goto	u3500
  1615                           
  1616                           ; BSR set to: 0
  1617  000290  0E39               	movlw	57
  1618  000292  65B2               	cpfsgt	gestionserie@ch& (0+255),b
  1619  000294  D003               	goto	l218
  1620  000296                     u3500:
  1621                           
  1622                           ; BSR set to: 0
  1623                           
  1624                           ; BSR set to: 0
  1625  000296  0E00               	movlw	0
  1626  000298  6FFF               	movwf	gestionserie@mae_serie& (0+255),b
  1627  00029A  0012               	return	
  1628  00029C                     l218:
  1629                           
  1630                           ; BSR set to: 0
  1631                           ;main.c: 396: lat1prov3=ch;
  1632  00029C  C0B2  F0EA         	movff	gestionserie@ch,gestionserie@lat1prov3
  1633  0002A0  6BEB               	clrf	(gestionserie@lat1prov3+1)& (0+255),b
  1634                           
  1635                           ; BSR set to: 0
  1636                           ;main.c: 397: mae_serie++;
  1637  0002A2  2BFF               	incf	gestionserie@mae_serie& (0+255),f,b
  1638                           
  1639                           ;main.c: 398: break;
  1640  0002A4  0012               	return	
  1641  0002A6                     
  1642                           ; BSR set to: 0
  1643                           ;main.c: 400: TXREG1 = 'H';
  1644                           
  1645                           ; BSR set to: 0
  1646  0002A6  0E48               	movlw	72
  1647  0002A8  6EAD               	movwf	4013,c	;volatile
  1648                           
  1649                           ; BSR set to: 0
  1650                           ;main.c: 401: if((ch<'0')||(ch>'9')){mae_serie=0;break;}
  1651  0002AA  0E2F               	movlw	47
  1652  0002AC  65B2               	cpfsgt	gestionserie@ch& (0+255),b
  1653  0002AE  D003               	goto	u3520
  1654                           
  1655                           ; BSR set to: 0
  1656  0002B0  0E39               	movlw	57
  1657  0002B2  65B2               	cpfsgt	gestionserie@ch& (0+255),b
  1658  0002B4  D003               	goto	l222
  1659  0002B6                     u3520:
  1660                           
  1661                           ; BSR set to: 0
  1662                           
  1663                           ; BSR set to: 0
  1664  0002B6  0E00               	movlw	0
  1665  0002B8  6FFF               	movwf	gestionserie@mae_serie& (0+255),b
  1666  0002BA  0012               	return	
  1667  0002BC                     l222:
  1668                           
  1669                           ; BSR set to: 0
  1670                           ;main.c: 403: lat1prov4=ch;
  1671  0002BC  C0B2  F0E8         	movff	gestionserie@ch,gestionserie@lat1prov4
  1672  0002C0  6BE9               	clrf	(gestionserie@lat1prov4+1)& (0+255),b
  1673                           
  1674                           ; BSR set to: 0
  1675                           ;main.c: 404: mae_serie++;
  1676  0002C2  2BFF               	incf	gestionserie@mae_serie& (0+255),f,b
  1677                           
  1678                           ;main.c: 405: break;
  1679  0002C4  0012               	return	
  1680  0002C6                     
  1681                           ; BSR set to: 0
  1682                           ;main.c: 407: TXREG1 = 'I';
  1683                           
  1684                           ; BSR set to: 0
  1685  0002C6  0E49               	movlw	73
  1686  0002C8  6EAD               	movwf	4013,c	;volatile
  1687                           
  1688                           ; BSR set to: 0
  1689                           ;main.c: 408: if(ch!='.'){mae_serie=0;break;}
  1690  0002CA  0E2E               	movlw	46
  1691  0002CC  19B2               	xorwf	gestionserie@ch& (0+255),w,b
  1692  0002CE  B4D8               	btfsc	status,2,c
  1693  0002D0  D003               	goto	l226
  1694                           
  1695                           ; BSR set to: 0
  1696  0002D2  0E00               	movlw	0
  1697  0002D4  6FFF               	movwf	gestionserie@mae_serie& (0+255),b
  1698  0002D6  0012               	return	
  1699  0002D8                     l226:
  1700                           
  1701                           ; BSR set to: 0
  1702                           ;main.c: 409: lat1provP=ch;
  1703  0002D8  C0B2  F0E6         	movff	gestionserie@ch,gestionserie@lat1provP
  1704  0002DC  6BE7               	clrf	(gestionserie@lat1provP+1)& (0+255),b
  1705                           
  1706                           ; BSR set to: 0
  1707                           ;main.c: 410: mae_serie++;
  1708  0002DE  2BFF               	incf	gestionserie@mae_serie& (0+255),f,b
  1709                           
  1710                           ;main.c: 411: break;
  1711  0002E0  0012               	return	
  1712  0002E2                     
  1713                           ; BSR set to: 0
  1714                           ;main.c: 413: TXREG1 = 'J';
  1715                           
  1716                           ; BSR set to: 0
  1717  0002E2  0E4A               	movlw	74
  1718  0002E4  6EAD               	movwf	4013,c	;volatile
  1719                           
  1720                           ; BSR set to: 0
  1721                           ;main.c: 414: if((ch<'0')||(ch>'9')){mae_serie=0;break;}
  1722  0002E6  0E2F               	movlw	47
  1723  0002E8  65B2               	cpfsgt	gestionserie@ch& (0+255),b
  1724  0002EA  D003               	goto	u3550
  1725                           
  1726                           ; BSR set to: 0
  1727  0002EC  0E39               	movlw	57
  1728  0002EE  65B2               	cpfsgt	gestionserie@ch& (0+255),b
  1729  0002F0  D003               	goto	l228
  1730  0002F2                     u3550:
  1731                           
  1732                           ; BSR set to: 0
  1733                           
  1734                           ; BSR set to: 0
  1735  0002F2  0E00               	movlw	0
  1736  0002F4  6FFF               	movwf	gestionserie@mae_serie& (0+255),b
  1737  0002F6  0012               	return	
  1738  0002F8                     l228:
  1739                           
  1740                           ; BSR set to: 0
  1741                           ;main.c: 417: lat1prov5=ch;
  1742  0002F8  C0B2  F0E4         	movff	gestionserie@ch,gestionserie@lat1prov5
  1743  0002FC  6BE5               	clrf	(gestionserie@lat1prov5+1)& (0+255),b
  1744                           
  1745                           ; BSR set to: 0
  1746                           ;main.c: 418: mae_serie++;
  1747  0002FE  2BFF               	incf	gestionserie@mae_serie& (0+255),f,b
  1748                           
  1749                           ;main.c: 419: break;
  1750  000300  0012               	return	
  1751  000302                     
  1752                           ; BSR set to: 0
  1753                           ;main.c: 421: TXREG1 = 'K';
  1754                           
  1755                           ; BSR set to: 0
  1756  000302  0E4B               	movlw	75
  1757  000304  6EAD               	movwf	4013,c	;volatile
  1758                           
  1759                           ; BSR set to: 0
  1760                           ;main.c: 422: if((ch<'0')||(ch>'9')){mae_serie=0;break;}
  1761  000306  0E2F               	movlw	47
  1762  000308  65B2               	cpfsgt	gestionserie@ch& (0+255),b
  1763  00030A  D003               	goto	u3570
  1764                           
  1765                           ; BSR set to: 0
  1766  00030C  0E39               	movlw	57
  1767  00030E  65B2               	cpfsgt	gestionserie@ch& (0+255),b
  1768  000310  D003               	goto	l232
  1769  000312                     u3570:
  1770                           
  1771                           ; BSR set to: 0
  1772                           
  1773                           ; BSR set to: 0
  1774  000312  0E00               	movlw	0
  1775  000314  6FFF               	movwf	gestionserie@mae_serie& (0+255),b
  1776  000316  0012               	return	
  1777  000318                     l232:
  1778                           
  1779                           ; BSR set to: 0
  1780                           ;main.c: 424: lat1prov6=ch;
  1781  000318  C0B2  F0E2         	movff	gestionserie@ch,gestionserie@lat1prov6
  1782  00031C  6BE3               	clrf	(gestionserie@lat1prov6+1)& (0+255),b
  1783                           
  1784                           ; BSR set to: 0
  1785                           ;main.c: 425: mae_serie++;
  1786  00031E  2BFF               	incf	gestionserie@mae_serie& (0+255),f,b
  1787                           
  1788                           ;main.c: 426: break;
  1789  000320  0012               	return	
  1790  000322                     
  1791                           ; BSR set to: 0
  1792                           ;main.c: 428: TXREG1 = 'L';
  1793                           
  1794                           ; BSR set to: 0
  1795  000322  0E4C               	movlw	76
  1796  000324  6EAD               	movwf	4013,c	;volatile
  1797                           
  1798                           ; BSR set to: 0
  1799                           ;main.c: 429: if((ch<'0')||(ch>'9')){mae_serie=0;break;}
  1800  000326  0E2F               	movlw	47
  1801  000328  65B2               	cpfsgt	gestionserie@ch& (0+255),b
  1802  00032A  D003               	goto	u3590
  1803                           
  1804                           ; BSR set to: 0
  1805  00032C  0E39               	movlw	57
  1806  00032E  65B2               	cpfsgt	gestionserie@ch& (0+255),b
  1807  000330  D003               	goto	l236
  1808  000332                     u3590:
  1809                           
  1810                           ; BSR set to: 0
  1811                           
  1812                           ; BSR set to: 0
  1813  000332  0E00               	movlw	0
  1814  000334  6FFF               	movwf	gestionserie@mae_serie& (0+255),b
  1815  000336  0012               	return	
  1816  000338                     l236:
  1817                           
  1818                           ; BSR set to: 0
  1819                           ;main.c: 431: lat1prov7=ch;
  1820  000338  C0B2  F0E0         	movff	gestionserie@ch,gestionserie@lat1prov7
  1821  00033C  6BE1               	clrf	(gestionserie@lat1prov7+1)& (0+255),b
  1822                           
  1823                           ; BSR set to: 0
  1824                           ;main.c: 432: mae_serie++;
  1825  00033E  2BFF               	incf	gestionserie@mae_serie& (0+255),f,b
  1826                           
  1827                           ;main.c: 433: break;
  1828  000340  0012               	return	
  1829  000342                     
  1830                           ; BSR set to: 0
  1831                           ;main.c: 435: TXREG1 = 'M';
  1832                           
  1833                           ; BSR set to: 0
  1834  000342  0E4D               	movlw	77
  1835  000344  6EAD               	movwf	4013,c	;volatile
  1836                           
  1837                           ; BSR set to: 0
  1838                           ;main.c: 436: if((ch<'0')||(ch>'9')){mae_serie=0;break;}
  1839  000346  0E2F               	movlw	47
  1840  000348  65B2               	cpfsgt	gestionserie@ch& (0+255),b
  1841  00034A  D003               	goto	u3610
  1842                           
  1843                           ; BSR set to: 0
  1844  00034C  0E39               	movlw	57
  1845  00034E  65B2               	cpfsgt	gestionserie@ch& (0+255),b
  1846  000350  D003               	goto	l240
  1847  000352                     u3610:
  1848                           
  1849                           ; BSR set to: 0
  1850                           
  1851                           ; BSR set to: 0
  1852  000352  0E00               	movlw	0
  1853  000354  6FFF               	movwf	gestionserie@mae_serie& (0+255),b
  1854  000356  0012               	return	
  1855  000358                     l240:
  1856                           
  1857                           ; BSR set to: 0
  1858                           ;main.c: 438: lat1prov8=ch;
  1859  000358  C0B2  F0DE         	movff	gestionserie@ch,gestionserie@lat1prov8
  1860  00035C  6BDF               	clrf	(gestionserie@lat1prov8+1)& (0+255),b
  1861                           
  1862                           ; BSR set to: 0
  1863                           ;main.c: 439: mae_serie++;
  1864  00035E  2BFF               	incf	gestionserie@mae_serie& (0+255),f,b
  1865                           
  1866                           ;main.c: 440: break;
  1867  000360  0012               	return	
  1868  000362                     
  1869                           ; BSR set to: 0
  1870                           ;main.c: 442: TXREG1 = 'N';
  1871                           
  1872                           ; BSR set to: 0
  1873  000362  0E4E               	movlw	78
  1874  000364  6EAD               	movwf	4013,c	;volatile
  1875                           
  1876                           ; BSR set to: 0
  1877                           ;main.c: 443: if(ch!=','){mae_serie=0;break;}
  1878  000366  0E2C               	movlw	44
  1879  000368  19B2               	xorwf	gestionserie@ch& (0+255),w,b
  1880  00036A  B4D8               	btfsc	status,2,c
  1881  00036C  D003               	goto	l244
  1882                           
  1883                           ; BSR set to: 0
  1884  00036E  0E00               	movlw	0
  1885  000370  6FFF               	movwf	gestionserie@mae_serie& (0+255),b
  1886  000372  0012               	return	
  1887  000374                     l244:
  1888                           
  1889                           ; BSR set to: 0
  1890                           ;main.c: 444: mae_serie++;
  1891                           
  1892                           ; BSR set to: 0
  1893  000374  2BFF               	incf	gestionserie@mae_serie& (0+255),f,b
  1894                           
  1895                           ;main.c: 445: break;
  1896  000376  0012               	return	
  1897  000378                     
  1898                           ; BSR set to: 0
  1899                           ;main.c: 447: TXREG1 = 'O';
  1900                           
  1901                           ; BSR set to: 0
  1902  000378  0E4F               	movlw	79
  1903  00037A  6EAD               	movwf	4013,c	;volatile
  1904                           
  1905                           ; BSR set to: 0
  1906                           ;main.c: 448: if((ch!='N')&&(ch!='S')){mae_serie=0;break;}
  1907  00037C  0E4E               	movlw	78
  1908  00037E  19B2               	xorwf	gestionserie@ch& (0+255),w,b
  1909  000380  B4D8               	btfsc	status,2,c
  1910  000382  D007               	goto	l246
  1911                           
  1912                           ; BSR set to: 0
  1913  000384  0E53               	movlw	83
  1914  000386  19B2               	xorwf	gestionserie@ch& (0+255),w,b
  1915  000388  B4D8               	btfsc	status,2,c
  1916  00038A  D003               	goto	l246
  1917                           
  1918                           ; BSR set to: 0
  1919  00038C  0E00               	movlw	0
  1920  00038E  6FFF               	movwf	gestionserie@mae_serie& (0+255),b
  1921  000390  0012               	return	
  1922  000392                     l246:
  1923                           
  1924                           ; BSR set to: 0
  1925                           ;main.c: 449: N_Sprov=ch;
  1926  000392  C0B2  F0FC         	movff	gestionserie@ch,gestionserie@N_Sprov
  1927                           
  1928                           ; BSR set to: 0
  1929                           ;main.c: 450: mae_serie++;
  1930  000396  2BFF               	incf	gestionserie@mae_serie& (0+255),f,b
  1931                           
  1932                           ;main.c: 451: break;
  1933  000398  0012               	return	
  1934  00039A                     
  1935                           ; BSR set to: 0
  1936                           ;main.c: 453: TXREG1 = 'P';
  1937                           
  1938                           ; BSR set to: 0
  1939  00039A  0E50               	movlw	80
  1940  00039C  6EAD               	movwf	4013,c	;volatile
  1941                           
  1942                           ;main.c: 454: if(ch=','){mae_serie++;break;}
  1943  00039E  0E2C               	movlw	44
  1944  0003A0  6FB2               	movwf	gestionserie@ch& (0+255),b
  1945                           
  1946                           ; BSR set to: 0
  1947  0003A2  2BFF               	incf	gestionserie@mae_serie& (0+255),f,b
  1948                           
  1949                           ; BSR set to: 0
  1950                           ;main.c: 455: break;
  1951  0003A4  0012               	return	
  1952  0003A6                     
  1953                           ; BSR set to: 0
  1954                           ;main.c: 457: TXREG1 = 'Q';
  1955                           
  1956                           ; BSR set to: 0
  1957  0003A6  0E51               	movlw	81
  1958  0003A8  6EAD               	movwf	4013,c	;volatile
  1959                           
  1960                           ; BSR set to: 0
  1961                           ;main.c: 458: if((ch<'0')||(ch>'9')){mae_serie=0;break;}
  1962  0003AA  0E2F               	movlw	47
  1963  0003AC  65B2               	cpfsgt	gestionserie@ch& (0+255),b
  1964  0003AE  D003               	goto	u3660
  1965                           
  1966                           ; BSR set to: 0
  1967  0003B0  0E39               	movlw	57
  1968  0003B2  65B2               	cpfsgt	gestionserie@ch& (0+255),b
  1969  0003B4  D003               	goto	l250
  1970  0003B6                     u3660:
  1971                           
  1972                           ; BSR set to: 0
  1973                           
  1974                           ; BSR set to: 0
  1975  0003B6  0E00               	movlw	0
  1976  0003B8  6FFF               	movwf	gestionserie@mae_serie& (0+255),b
  1977  0003BA  0012               	return	
  1978  0003BC                     l250:
  1979                           
  1980                           ; BSR set to: 0
  1981                           ;main.c: 461: long1prov1=ch;
  1982  0003BC  C0B2  F0DC         	movff	gestionserie@ch,gestionserie@long1prov1
  1983  0003C0  6BDD               	clrf	(gestionserie@long1prov1+1)& (0+255),b
  1984                           
  1985                           ; BSR set to: 0
  1986                           ;main.c: 462: mae_serie++;
  1987  0003C2  2BFF               	incf	gestionserie@mae_serie& (0+255),f,b
  1988                           
  1989                           ;main.c: 463: break;
  1990  0003C4  0012               	return	
  1991  0003C6                     
  1992                           ; BSR set to: 0
  1993                           ;main.c: 465: TXREG1 = 'R';
  1994                           
  1995                           ; BSR set to: 0
  1996  0003C6  0E52               	movlw	82
  1997  0003C8  6EAD               	movwf	4013,c	;volatile
  1998                           
  1999                           ; BSR set to: 0
  2000                           ;main.c: 466: if((ch<'0')||(ch>'9')){mae_serie=0;break;}
  2001  0003CA  0E2F               	movlw	47
  2002  0003CC  65B2               	cpfsgt	gestionserie@ch& (0+255),b
  2003  0003CE  D003               	goto	u3680
  2004                           
  2005                           ; BSR set to: 0
  2006  0003D0  0E39               	movlw	57
  2007  0003D2  65B2               	cpfsgt	gestionserie@ch& (0+255),b
  2008  0003D4  D003               	goto	l254
  2009  0003D6                     u3680:
  2010                           
  2011                           ; BSR set to: 0
  2012                           
  2013                           ; BSR set to: 0
  2014  0003D6  0E00               	movlw	0
  2015  0003D8  6FFF               	movwf	gestionserie@mae_serie& (0+255),b
  2016  0003DA  0012               	return	
  2017  0003DC                     l254:
  2018                           
  2019                           ; BSR set to: 0
  2020                           ;main.c: 468: long1prov2=ch;
  2021  0003DC  C0B2  F0DA         	movff	gestionserie@ch,gestionserie@long1prov2
  2022  0003E0  6BDB               	clrf	(gestionserie@long1prov2+1)& (0+255),b
  2023                           
  2024                           ; BSR set to: 0
  2025                           ;main.c: 469: mae_serie++;
  2026  0003E2  2BFF               	incf	gestionserie@mae_serie& (0+255),f,b
  2027                           
  2028                           ;main.c: 470: break;
  2029  0003E4  0012               	return	
  2030  0003E6                     
  2031                           ; BSR set to: 0
  2032                           ;main.c: 472: TXREG1 = 'S';
  2033                           
  2034                           ; BSR set to: 0
  2035  0003E6  0E53               	movlw	83
  2036  0003E8  6EAD               	movwf	4013,c	;volatile
  2037                           
  2038                           ; BSR set to: 0
  2039                           ;main.c: 473: if((ch<'0')||(ch>'9')){mae_serie=0;break;}
  2040  0003EA  0E2F               	movlw	47
  2041  0003EC  65B2               	cpfsgt	gestionserie@ch& (0+255),b
  2042  0003EE  D003               	goto	u3700
  2043                           
  2044                           ; BSR set to: 0
  2045  0003F0  0E39               	movlw	57
  2046  0003F2  65B2               	cpfsgt	gestionserie@ch& (0+255),b
  2047  0003F4  D003               	goto	l258
  2048  0003F6                     u3700:
  2049                           
  2050                           ; BSR set to: 0
  2051                           
  2052                           ; BSR set to: 0
  2053  0003F6  0E00               	movlw	0
  2054  0003F8  6FFF               	movwf	gestionserie@mae_serie& (0+255),b
  2055  0003FA  0012               	return	
  2056  0003FC                     l258:
  2057                           
  2058                           ; BSR set to: 0
  2059                           ;main.c: 475: long1prov3=ch;
  2060  0003FC  C0B2  F0D8         	movff	gestionserie@ch,gestionserie@long1prov3
  2061  000400  6BD9               	clrf	(gestionserie@long1prov3+1)& (0+255),b
  2062                           
  2063                           ; BSR set to: 0
  2064                           ;main.c: 476: mae_serie++;
  2065  000402  2BFF               	incf	gestionserie@mae_serie& (0+255),f,b
  2066                           
  2067                           ;main.c: 477: break;
  2068  000404  0012               	return	
  2069  000406                     
  2070                           ; BSR set to: 0
  2071                           ;main.c: 479: TXREG1 = 'T';
  2072                           
  2073                           ; BSR set to: 0
  2074  000406  0E54               	movlw	84
  2075  000408  6EAD               	movwf	4013,c	;volatile
  2076                           
  2077                           ; BSR set to: 0
  2078                           ;main.c: 480: if((ch<'0')||(ch>'9')){mae_serie=0;break;}
  2079  00040A  0E2F               	movlw	47
  2080  00040C  65B2               	cpfsgt	gestionserie@ch& (0+255),b
  2081  00040E  D003               	goto	u3720
  2082                           
  2083                           ; BSR set to: 0
  2084  000410  0E39               	movlw	57
  2085  000412  65B2               	cpfsgt	gestionserie@ch& (0+255),b
  2086  000414  D003               	goto	l262
  2087  000416                     u3720:
  2088                           
  2089                           ; BSR set to: 0
  2090                           
  2091                           ; BSR set to: 0
  2092  000416  0E00               	movlw	0
  2093  000418  6FFF               	movwf	gestionserie@mae_serie& (0+255),b
  2094  00041A  0012               	return	
  2095  00041C                     l262:
  2096                           
  2097                           ; BSR set to: 0
  2098                           ;main.c: 482: long1prov4=ch;
  2099  00041C  C0B2  F0D6         	movff	gestionserie@ch,gestionserie@long1prov4
  2100  000420  6BD7               	clrf	(gestionserie@long1prov4+1)& (0+255),b
  2101                           
  2102                           ; BSR set to: 0
  2103                           ;main.c: 483: mae_serie++;
  2104  000422  2BFF               	incf	gestionserie@mae_serie& (0+255),f,b
  2105                           
  2106                           ;main.c: 484: break;
  2107  000424  0012               	return	
  2108  000426                     
  2109                           ; BSR set to: 0
  2110                           ;main.c: 486: TXREG1 = 'U';
  2111                           
  2112                           ; BSR set to: 0
  2113  000426  0E55               	movlw	85
  2114  000428  6EAD               	movwf	4013,c	;volatile
  2115                           
  2116                           ; BSR set to: 0
  2117                           ;main.c: 487: if((ch<'0')||(ch>'9')){mae_serie=0;break;}
  2118  00042A  0E2F               	movlw	47
  2119  00042C  65B2               	cpfsgt	gestionserie@ch& (0+255),b
  2120  00042E  D003               	goto	u3740
  2121                           
  2122                           ; BSR set to: 0
  2123  000430  0E39               	movlw	57
  2124  000432  65B2               	cpfsgt	gestionserie@ch& (0+255),b
  2125  000434  D003               	goto	l266
  2126  000436                     u3740:
  2127                           
  2128                           ; BSR set to: 0
  2129                           
  2130                           ; BSR set to: 0
  2131  000436  0E00               	movlw	0
  2132  000438  6FFF               	movwf	gestionserie@mae_serie& (0+255),b
  2133  00043A  0012               	return	
  2134  00043C                     l266:
  2135                           
  2136                           ; BSR set to: 0
  2137                           ;main.c: 489: long1prov5=ch;
  2138  00043C  C0B2  F0D4         	movff	gestionserie@ch,gestionserie@long1prov5
  2139  000440  6BD5               	clrf	(gestionserie@long1prov5+1)& (0+255),b
  2140                           
  2141                           ; BSR set to: 0
  2142                           ;main.c: 490: mae_serie++;
  2143  000442  2BFF               	incf	gestionserie@mae_serie& (0+255),f,b
  2144                           
  2145                           ;main.c: 491: break;
  2146  000444  0012               	return	
  2147  000446                     
  2148                           ; BSR set to: 0
  2149                           ;main.c: 493: TXREG1 = 'V';
  2150                           
  2151                           ; BSR set to: 0
  2152  000446  0E56               	movlw	86
  2153  000448  6EAD               	movwf	4013,c	;volatile
  2154                           
  2155                           ; BSR set to: 0
  2156                           ;main.c: 494: if(ch!='.'){mae_serie=0;break;}
  2157  00044A  0E2E               	movlw	46
  2158  00044C  19B2               	xorwf	gestionserie@ch& (0+255),w,b
  2159  00044E  B4D8               	btfsc	status,2,c
  2160  000450  D003               	goto	l270
  2161                           
  2162                           ; BSR set to: 0
  2163  000452  0E00               	movlw	0
  2164  000454  6FFF               	movwf	gestionserie@mae_serie& (0+255),b
  2165  000456  0012               	return	
  2166  000458                     l270:
  2167                           
  2168                           ; BSR set to: 0
  2169                           ;main.c: 495: long1provP=ch;
  2170  000458  C0B2  F0D2         	movff	gestionserie@ch,gestionserie@long1provP
  2171  00045C  6BD3               	clrf	(gestionserie@long1provP+1)& (0+255),b
  2172                           
  2173                           ; BSR set to: 0
  2174                           ;main.c: 496: mae_serie++;
  2175  00045E  2BFF               	incf	gestionserie@mae_serie& (0+255),f,b
  2176                           
  2177                           ;main.c: 497: break;
  2178  000460  0012               	return	
  2179  000462                     
  2180                           ; BSR set to: 0
  2181                           ;main.c: 499: TXREG1 = 'W';
  2182                           
  2183                           ; BSR set to: 0
  2184  000462  0E57               	movlw	87
  2185  000464  6EAD               	movwf	4013,c	;volatile
  2186                           
  2187                           ; BSR set to: 0
  2188                           ;main.c: 500: if((ch<'0')||(ch>'9')){mae_serie=0;break;}
  2189  000466  0E2F               	movlw	47
  2190  000468  65B2               	cpfsgt	gestionserie@ch& (0+255),b
  2191  00046A  D003               	goto	u3770
  2192                           
  2193                           ; BSR set to: 0
  2194  00046C  0E39               	movlw	57
  2195  00046E  65B2               	cpfsgt	gestionserie@ch& (0+255),b
  2196  000470  D003               	goto	l272
  2197  000472                     u3770:
  2198                           
  2199                           ; BSR set to: 0
  2200                           
  2201                           ; BSR set to: 0
  2202  000472  0E00               	movlw	0
  2203  000474  6FFF               	movwf	gestionserie@mae_serie& (0+255),b
  2204  000476  0012               	return	
  2205  000478                     l272:
  2206                           
  2207                           ; BSR set to: 0
  2208                           ;main.c: 503: long1prov6=ch;
  2209  000478  C0B2  F0D0         	movff	gestionserie@ch,gestionserie@long1prov6
  2210  00047C  6BD1               	clrf	(gestionserie@long1prov6+1)& (0+255),b
  2211                           
  2212                           ; BSR set to: 0
  2213                           ;main.c: 504: mae_serie++;
  2214  00047E  2BFF               	incf	gestionserie@mae_serie& (0+255),f,b
  2215                           
  2216                           ;main.c: 505: break;
  2217  000480  0012               	return	
  2218  000482                     
  2219                           ; BSR set to: 0
  2220                           ;main.c: 507: TXREG1 = 'X';
  2221                           
  2222                           ; BSR set to: 0
  2223  000482  0E58               	movlw	88
  2224  000484  6EAD               	movwf	4013,c	;volatile
  2225                           
  2226                           ; BSR set to: 0
  2227                           ;main.c: 508: if((ch<'0')||(ch>'9')){mae_serie=0;break;}
  2228  000486  0E2F               	movlw	47
  2229  000488  65B2               	cpfsgt	gestionserie@ch& (0+255),b
  2230  00048A  D003               	goto	u3790
  2231                           
  2232                           ; BSR set to: 0
  2233  00048C  0E39               	movlw	57
  2234  00048E  65B2               	cpfsgt	gestionserie@ch& (0+255),b
  2235  000490  D003               	goto	l276
  2236  000492                     u3790:
  2237                           
  2238                           ; BSR set to: 0
  2239                           
  2240                           ; BSR set to: 0
  2241  000492  0E00               	movlw	0
  2242  000494  6FFF               	movwf	gestionserie@mae_serie& (0+255),b
  2243  000496  0012               	return	
  2244  000498                     l276:
  2245                           
  2246                           ; BSR set to: 0
  2247                           ;main.c: 510: long1prov7=ch;
  2248  000498  C0B2  F038         	movff	gestionserie@ch,gestionserie@long1prov7
  2249  00049C  6A39               	clrf	gestionserie@long1prov7+1,c
  2250                           
  2251                           ; BSR set to: 0
  2252                           ;main.c: 511: mae_serie++;
  2253  00049E  2BFF               	incf	gestionserie@mae_serie& (0+255),f,b
  2254                           
  2255                           ;main.c: 512: break;
  2256  0004A0  0012               	return	
  2257  0004A2                     
  2258                           ; BSR set to: 0
  2259                           ;main.c: 514: TXREG1 = 'Y';
  2260                           
  2261                           ; BSR set to: 0
  2262  0004A2  0E59               	movlw	89
  2263  0004A4  6EAD               	movwf	4013,c	;volatile
  2264                           
  2265                           ; BSR set to: 0
  2266                           ;main.c: 515: if((ch<'0')||(ch>'9')){mae_serie=0;break;}
  2267  0004A6  0E2F               	movlw	47
  2268  0004A8  65B2               	cpfsgt	gestionserie@ch& (0+255),b
  2269  0004AA  D003               	goto	u3810
  2270                           
  2271                           ; BSR set to: 0
  2272  0004AC  0E39               	movlw	57
  2273  0004AE  65B2               	cpfsgt	gestionserie@ch& (0+255),b
  2274  0004B0  D003               	goto	l280
  2275  0004B2                     u3810:
  2276                           
  2277                           ; BSR set to: 0
  2278                           
  2279                           ; BSR set to: 0
  2280  0004B2  0E00               	movlw	0
  2281  0004B4  6FFF               	movwf	gestionserie@mae_serie& (0+255),b
  2282  0004B6  0012               	return	
  2283  0004B8                     l280:
  2284                           
  2285                           ; BSR set to: 0
  2286                           ;main.c: 517: long1prov8=ch;
  2287  0004B8  C0B2  F036         	movff	gestionserie@ch,gestionserie@long1prov8
  2288  0004BC  6A37               	clrf	gestionserie@long1prov8+1,c
  2289                           
  2290                           ; BSR set to: 0
  2291                           ;main.c: 518: mae_serie++;
  2292  0004BE  2BFF               	incf	gestionserie@mae_serie& (0+255),f,b
  2293                           
  2294                           ;main.c: 519: break;
  2295  0004C0  0012               	return	
  2296  0004C2                     
  2297                           ; BSR set to: 0
  2298                           ;main.c: 521: TXREG1 = 'Z';
  2299                           
  2300                           ; BSR set to: 0
  2301  0004C2  0E5A               	movlw	90
  2302  0004C4  6EAD               	movwf	4013,c	;volatile
  2303                           
  2304                           ; BSR set to: 0
  2305                           ;main.c: 522: if((ch<'0')||(ch>'9')){mae_serie=0;break;}
  2306  0004C6  0E2F               	movlw	47
  2307  0004C8  65B2               	cpfsgt	gestionserie@ch& (0+255),b
  2308  0004CA  D003               	goto	u3830
  2309                           
  2310                           ; BSR set to: 0
  2311  0004CC  0E39               	movlw	57
  2312  0004CE  65B2               	cpfsgt	gestionserie@ch& (0+255),b
  2313  0004D0  D003               	goto	l284
  2314  0004D2                     u3830:
  2315                           
  2316                           ; BSR set to: 0
  2317                           
  2318                           ; BSR set to: 0
  2319  0004D2  0E00               	movlw	0
  2320  0004D4  6FFF               	movwf	gestionserie@mae_serie& (0+255),b
  2321  0004D6  0012               	return	
  2322  0004D8                     l284:
  2323                           
  2324                           ; BSR set to: 0
  2325                           ;main.c: 524: long1prov9=ch;
  2326  0004D8  C0B2  F034         	movff	gestionserie@ch,gestionserie@long1prov9
  2327  0004DC  6A35               	clrf	gestionserie@long1prov9+1,c
  2328                           
  2329                           ; BSR set to: 0
  2330                           ;main.c: 525: mae_serie++;
  2331  0004DE  2BFF               	incf	gestionserie@mae_serie& (0+255),f,b
  2332                           
  2333                           ;main.c: 526: break;
  2334  0004E0  0012               	return	
  2335  0004E2                     
  2336                           ; BSR set to: 0
  2337                           ;main.c: 528: TXREG1 = 'a';
  2338                           
  2339                           ; BSR set to: 0
  2340  0004E2  0E61               	movlw	97
  2341  0004E4  6EAD               	movwf	4013,c	;volatile
  2342                           
  2343                           ; BSR set to: 0
  2344                           ;main.c: 529: if(ch!=','){mae_serie=0;break;}
  2345  0004E6  0E2C               	movlw	44
  2346  0004E8  19B2               	xorwf	gestionserie@ch& (0+255),w,b
  2347  0004EA  B4D8               	btfsc	status,2,c
  2348  0004EC  D003               	goto	l288
  2349                           
  2350                           ; BSR set to: 0
  2351  0004EE  0E00               	movlw	0
  2352  0004F0  6FFF               	movwf	gestionserie@mae_serie& (0+255),b
  2353  0004F2  0012               	return	
  2354  0004F4                     l288:
  2355                           
  2356                           ; BSR set to: 0
  2357                           ;main.c: 530: mae_serie++;
  2358                           
  2359                           ; BSR set to: 0
  2360  0004F4  2BFF               	incf	gestionserie@mae_serie& (0+255),f,b
  2361                           
  2362                           ;main.c: 531: break;
  2363  0004F6  0012               	return	
  2364  0004F8                     
  2365                           ; BSR set to: 0
  2366                           ;main.c: 533: TXREG1 = 'b';
  2367                           
  2368                           ; BSR set to: 0
  2369  0004F8  0E62               	movlw	98
  2370  0004FA  6EAD               	movwf	4013,c	;volatile
  2371                           
  2372                           ; BSR set to: 0
  2373                           ;main.c: 534: if((ch!='E')&&(ch!='W')){mae_serie=0;break;}
  2374  0004FC  0E45               	movlw	69
  2375  0004FE  19B2               	xorwf	gestionserie@ch& (0+255),w,b
  2376  000500  B4D8               	btfsc	status,2,c
  2377  000502  D007               	goto	l290
  2378                           
  2379                           ; BSR set to: 0
  2380  000504  0E57               	movlw	87
  2381  000506  19B2               	xorwf	gestionserie@ch& (0+255),w,b
  2382  000508  B4D8               	btfsc	status,2,c
  2383  00050A  D003               	goto	l290
  2384                           
  2385                           ; BSR set to: 0
  2386  00050C  0E00               	movlw	0
  2387  00050E  6FFF               	movwf	gestionserie@mae_serie& (0+255),b
  2388  000510  0012               	return	
  2389  000512                     l290:
  2390                           
  2391                           ; BSR set to: 0
  2392                           ;main.c: 535: E_Wprov=ch;
  2393  000512  C0B2  F0FD         	movff	gestionserie@ch,gestionserie@E_Wprov
  2394                           
  2395                           ; BSR set to: 0
  2396                           ;main.c: 536: mae_serie++;
  2397  000516  2BFF               	incf	gestionserie@mae_serie& (0+255),f,b
  2398                           
  2399                           ;main.c: 537: break;
  2400  000518  0012               	return	
  2401  00051A                     
  2402                           ; BSR set to: 0
  2403                           ;main.c: 539: TXREG1 = 'c';
  2404                           
  2405                           ; BSR set to: 0
  2406  00051A  0E63               	movlw	99
  2407  00051C  6EAD               	movwf	4013,c	;volatile
  2408                           
  2409                           ; BSR set to: 0
  2410                           ;main.c: 540: if(ch==','){mae_serie++;break;}
  2411  00051E  0E2C               	movlw	44
  2412  000520  19B2               	xorwf	gestionserie@ch& (0+255),w,b
  2413  000522  A4D8               	btfss	status,2,c
  2414  000524  0012               	return	
  2415                           
  2416                           ; BSR set to: 0
  2417  000526  2BFF               	incf	gestionserie@mae_serie& (0+255),f,b
  2418                           
  2419                           ; BSR set to: 0
  2420                           ;main.c: 541: break;
  2421  000528  0012               	return	
  2422  00052A                     
  2423                           ; BSR set to: 0
  2424                           ;main.c: 543: TXREG1 = 'd';
  2425                           
  2426                           ; BSR set to: 0
  2427  00052A  0E64               	movlw	100
  2428  00052C  6EAD               	movwf	4013,c	;volatile
  2429                           
  2430                           ; BSR set to: 0
  2431                           ;main.c: 544: if(ch==','){mae_serie++;break;}
  2432  00052E  0E2C               	movlw	44
  2433  000530  19B2               	xorwf	gestionserie@ch& (0+255),w,b
  2434  000532  A4D8               	btfss	status,2,c
  2435  000534  0012               	return	
  2436                           
  2437                           ; BSR set to: 0
  2438  000536  2BFF               	incf	gestionserie@mae_serie& (0+255),f,b
  2439                           
  2440                           ; BSR set to: 0
  2441                           ;main.c: 545: break;
  2442  000538  0012               	return	
  2443  00053A                     
  2444                           ; BSR set to: 0
  2445                           ;main.c: 547: TXREG1 = 'e';
  2446                           
  2447                           ; BSR set to: 0
  2448  00053A  0E65               	movlw	101
  2449  00053C  6EAD               	movwf	4013,c	;volatile
  2450                           
  2451                           ; BSR set to: 0
  2452                           ;main.c: 548: if(ch==','){mae_serie++;break;}
  2453  00053E  0E2C               	movlw	44
  2454  000540  19B2               	xorwf	gestionserie@ch& (0+255),w,b
  2455  000542  A4D8               	btfss	status,2,c
  2456  000544  0012               	return	
  2457                           
  2458                           ; BSR set to: 0
  2459  000546  2BFF               	incf	gestionserie@mae_serie& (0+255),f,b
  2460                           
  2461                           ; BSR set to: 0
  2462                           ;main.c: 549: break;
  2463  000548  0012               	return	
  2464  00054A                     
  2465                           ; BSR set to: 0
  2466                           ;main.c: 551: TXREG1 = 'f';
  2467                           
  2468                           ; BSR set to: 0
  2469  00054A  0E66               	movlw	102
  2470  00054C  6EAD               	movwf	4013,c	;volatile
  2471                           
  2472                           ; BSR set to: 0
  2473                           ;main.c: 552: if((ch<'0')||(ch>'9')){mae_serie=0;break;}
  2474  00054E  0E2F               	movlw	47
  2475  000550  65B2               	cpfsgt	gestionserie@ch& (0+255),b
  2476  000552  D003               	goto	u3910
  2477                           
  2478                           ; BSR set to: 0
  2479  000554  0E39               	movlw	57
  2480  000556  65B2               	cpfsgt	gestionserie@ch& (0+255),b
  2481  000558  D003               	goto	l298
  2482  00055A                     u3910:
  2483                           
  2484                           ; BSR set to: 0
  2485                           
  2486                           ; BSR set to: 0
  2487  00055A  0E00               	movlw	0
  2488  00055C  6FFF               	movwf	gestionserie@mae_serie& (0+255),b
  2489  00055E  0012               	return	
  2490  000560                     l298:
  2491                           
  2492                           ; BSR set to: 0
  2493                           ;main.c: 555: dayDizaineprov=ch;
  2494  000560  C0B2  F032         	movff	gestionserie@ch,gestionserie@dayDizaineprov
  2495  000564  6A33               	clrf	gestionserie@dayDizaineprov+1,c
  2496                           
  2497                           ; BSR set to: 0
  2498                           ;main.c: 556: mae_serie++;
  2499  000566  2BFF               	incf	gestionserie@mae_serie& (0+255),f,b
  2500                           
  2501                           ;main.c: 557: break;
  2502  000568  0012               	return	
  2503  00056A                     
  2504                           ; BSR set to: 0
  2505                           ;main.c: 559: TXREG1 = 'g';
  2506                           
  2507                           ; BSR set to: 0
  2508  00056A  0E67               	movlw	103
  2509  00056C  6EAD               	movwf	4013,c	;volatile
  2510                           
  2511                           ; BSR set to: 0
  2512                           ;main.c: 560: if((ch<'0')||(ch>'9')){mae_serie=0;break;}
  2513  00056E  0E2F               	movlw	47
  2514  000570  65B2               	cpfsgt	gestionserie@ch& (0+255),b
  2515  000572  D003               	goto	u3930
  2516                           
  2517                           ; BSR set to: 0
  2518  000574  0E39               	movlw	57
  2519  000576  65B2               	cpfsgt	gestionserie@ch& (0+255),b
  2520  000578  D003               	goto	l302
  2521  00057A                     u3930:
  2522                           
  2523                           ; BSR set to: 0
  2524                           
  2525                           ; BSR set to: 0
  2526  00057A  0E00               	movlw	0
  2527  00057C  6FFF               	movwf	gestionserie@mae_serie& (0+255),b
  2528  00057E  0012               	return	
  2529  000580                     l302:
  2530                           
  2531                           ; BSR set to: 0
  2532                           ;main.c: 562: dayUniteprov=ch;
  2533  000580  C0B2  F030         	movff	gestionserie@ch,gestionserie@dayUniteprov
  2534  000584  6A31               	clrf	gestionserie@dayUniteprov+1,c
  2535                           
  2536                           ; BSR set to: 0
  2537                           ;main.c: 563: mae_serie++;
  2538  000586  2BFF               	incf	gestionserie@mae_serie& (0+255),f,b
  2539                           
  2540                           ;main.c: 564: break;
  2541  000588  0012               	return	
  2542  00058A                     
  2543                           ; BSR set to: 0
  2544                           ;main.c: 566: TXREG1 = 'h';
  2545                           
  2546                           ; BSR set to: 0
  2547  00058A  0E68               	movlw	104
  2548  00058C  6EAD               	movwf	4013,c	;volatile
  2549                           
  2550                           ; BSR set to: 0
  2551                           ;main.c: 567: if((ch<'0')||(ch>'9')){mae_serie=0;break;}
  2552  00058E  0E2F               	movlw	47
  2553  000590  65B2               	cpfsgt	gestionserie@ch& (0+255),b
  2554  000592  D003               	goto	u3950
  2555                           
  2556                           ; BSR set to: 0
  2557  000594  0E39               	movlw	57
  2558  000596  65B2               	cpfsgt	gestionserie@ch& (0+255),b
  2559  000598  D003               	goto	l306
  2560  00059A                     u3950:
  2561                           
  2562                           ; BSR set to: 0
  2563                           
  2564                           ; BSR set to: 0
  2565  00059A  0E00               	movlw	0
  2566  00059C  6FFF               	movwf	gestionserie@mae_serie& (0+255),b
  2567  00059E  0012               	return	
  2568  0005A0                     l306:
  2569                           
  2570                           ; BSR set to: 0
  2571                           ;main.c: 570: monthDizaineprov=ch;
  2572  0005A0  C0B2  F02E         	movff	gestionserie@ch,gestionserie@monthDizaineprov
  2573  0005A4  6A2F               	clrf	gestionserie@monthDizaineprov+1,c
  2574                           
  2575                           ; BSR set to: 0
  2576                           ;main.c: 571: mae_serie++;
  2577  0005A6  2BFF               	incf	gestionserie@mae_serie& (0+255),f,b
  2578                           
  2579                           ;main.c: 572: break;
  2580  0005A8  0012               	return	
  2581  0005AA                     
  2582                           ; BSR set to: 0
  2583                           ;main.c: 574: TXREG1 = 'i';
  2584                           
  2585                           ; BSR set to: 0
  2586  0005AA  0E69               	movlw	105
  2587  0005AC  6EAD               	movwf	4013,c	;volatile
  2588                           
  2589                           ; BSR set to: 0
  2590                           ;main.c: 575: if((ch<'0')||(ch>'9')){mae_serie=0;break;}
  2591  0005AE  0E2F               	movlw	47
  2592  0005B0  65B2               	cpfsgt	gestionserie@ch& (0+255),b
  2593  0005B2  D003               	goto	u3970
  2594                           
  2595                           ; BSR set to: 0
  2596  0005B4  0E39               	movlw	57
  2597  0005B6  65B2               	cpfsgt	gestionserie@ch& (0+255),b
  2598  0005B8  D003               	goto	l310
  2599  0005BA                     u3970:
  2600                           
  2601                           ; BSR set to: 0
  2602                           
  2603                           ; BSR set to: 0
  2604  0005BA  0E00               	movlw	0
  2605  0005BC  6FFF               	movwf	gestionserie@mae_serie& (0+255),b
  2606  0005BE  0012               	return	
  2607  0005C0                     l310:
  2608                           
  2609                           ; BSR set to: 0
  2610                           ;main.c: 577: monthUniteprov=ch;
  2611  0005C0  C0B2  F02C         	movff	gestionserie@ch,gestionserie@monthUniteprov
  2612  0005C4  6A2D               	clrf	gestionserie@monthUniteprov+1,c
  2613                           
  2614                           ; BSR set to: 0
  2615                           ;main.c: 578: mae_serie++;
  2616  0005C6  2BFF               	incf	gestionserie@mae_serie& (0+255),f,b
  2617                           
  2618                           ;main.c: 579: break;
  2619  0005C8  0012               	return	
  2620  0005CA                     
  2621                           ; BSR set to: 0
  2622                           ;main.c: 581: TXREG1 = 'j';
  2623                           
  2624                           ; BSR set to: 0
  2625  0005CA  0E6A               	movlw	106
  2626  0005CC  6EAD               	movwf	4013,c	;volatile
  2627                           
  2628                           ; BSR set to: 0
  2629                           ;main.c: 582: if((ch<'0')||(ch>'9')){mae_serie=0;break;}
  2630  0005CE  0E2F               	movlw	47
  2631  0005D0  65B2               	cpfsgt	gestionserie@ch& (0+255),b
  2632  0005D2  D003               	goto	u3990
  2633                           
  2634                           ; BSR set to: 0
  2635  0005D4  0E39               	movlw	57
  2636  0005D6  65B2               	cpfsgt	gestionserie@ch& (0+255),b
  2637  0005D8  D003               	goto	l314
  2638  0005DA                     u3990:
  2639                           
  2640                           ; BSR set to: 0
  2641                           
  2642                           ; BSR set to: 0
  2643  0005DA  0E00               	movlw	0
  2644  0005DC  6FFF               	movwf	gestionserie@mae_serie& (0+255),b
  2645  0005DE  0012               	return	
  2646  0005E0                     l314:
  2647                           
  2648                           ; BSR set to: 0
  2649                           ;main.c: 585: yearDizaineprov=ch;
  2650  0005E0  C0B2  F02A         	movff	gestionserie@ch,gestionserie@yearDizaineprov
  2651  0005E4  6A2B               	clrf	gestionserie@yearDizaineprov+1,c
  2652                           
  2653                           ; BSR set to: 0
  2654                           ;main.c: 586: mae_serie++;
  2655  0005E6  2BFF               	incf	gestionserie@mae_serie& (0+255),f,b
  2656                           
  2657                           ;main.c: 587: break;
  2658  0005E8  0012               	return	
  2659  0005EA                     
  2660                           ; BSR set to: 0
  2661                           ;main.c: 589: TXREG1 = 'k';
  2662                           
  2663                           ; BSR set to: 0
  2664  0005EA  0E6B               	movlw	107
  2665  0005EC  6EAD               	movwf	4013,c	;volatile
  2666                           
  2667                           ; BSR set to: 0
  2668                           ;main.c: 590: if((ch<'0')||(ch>'9')){mae_serie=0;TXREG1 = '!';break;}
  2669  0005EE  0E2F               	movlw	47
  2670  0005F0  65B2               	cpfsgt	gestionserie@ch& (0+255),b
  2671  0005F2  D003               	goto	u4010
  2672                           
  2673                           ; BSR set to: 0
  2674  0005F4  0E39               	movlw	57
  2675  0005F6  65B2               	cpfsgt	gestionserie@ch& (0+255),b
  2676  0005F8  D005               	goto	l318
  2677  0005FA                     u4010:
  2678                           
  2679                           ; BSR set to: 0
  2680                           
  2681                           ; BSR set to: 0
  2682  0005FA  0E00               	movlw	0
  2683  0005FC  6FFF               	movwf	gestionserie@mae_serie& (0+255),b
  2684  0005FE  0E21               	movlw	33
  2685  000600  6EAD               	movwf	4013,c	;volatile
  2686  000602  0012               	return	
  2687  000604                     l318:
  2688                           
  2689                           ; BSR set to: 0
  2690                           ;main.c: 592: yearUniteprov=ch;
  2691  000604  C0B2  F028         	movff	gestionserie@ch,gestionserie@yearUniteprov
  2692  000608  6A29               	clrf	gestionserie@yearUniteprov+1,c
  2693                           
  2694                           ; BSR set to: 0
  2695                           ;main.c: 599: TXREG1 = '|';
  2696  00060A  0E7C               	movlw	124
  2697  00060C  6EAD               	movwf	4013,c	;volatile
  2698                           
  2699                           ;main.c: 600: for(unsigned int i=0; i<5000; i++);
  2700  00060E  0E00               	movlw	0
  2701  000610  6F61               	movwf	(gestionserie@i+1)& (0+255),b
  2702  000612  0E00               	movlw	0
  2703  000614  6F60               	movwf	gestionserie@i& (0+255),b
  2704  000616  D002               	goto	l3304
  2705  000618                     
  2706                           ; BSR set to: 0
  2707                           
  2708                           ; BSR set to: 0
  2709  000618  4B60               	infsnz	gestionserie@i& (0+255),f,b
  2710  00061A  2B61               	incf	(gestionserie@i+1)& (0+255),f,b
  2711  00061C                     l3304:
  2712                           
  2713                           ; BSR set to: 0
  2714  00061C  0E88               	movlw	136
  2715  00061E  5D60               	subwf	gestionserie@i& (0+255),w,b
  2716  000620  0E13               	movlw	19
  2717  000622  5961               	subwfb	(gestionserie@i+1)& (0+255),w,b
  2718  000624  A0D8               	btfss	status,0,c
  2719  000626  D7F8               	goto	l321
  2720                           
  2721                           ; BSR set to: 0
  2722                           ;main.c: 601: TXREG1 = heureDizaineprov;
  2723  000628  C0FA  FFAD         	movff	gestionserie@heureDizaineprov,4013	;volatile
  2724                           
  2725                           ; BSR set to: 0
  2726                           ;main.c: 602: for(unsigned int i=0; i<5000; i++);
  2727  00062C  0E00               	movlw	0
  2728  00062E  6F63               	movwf	(gestionserie@i_437+1)& (0+255),b
  2729  000630  0E00               	movlw	0
  2730  000632  6F62               	movwf	gestionserie@i_437& (0+255),b
  2731  000634  D002               	goto	l3314
  2732  000636                     
  2733                           ; BSR set to: 0
  2734                           
  2735                           ; BSR set to: 0
  2736  000636  4B62               	infsnz	gestionserie@i_437& (0+255),f,b
  2737  000638  2B63               	incf	(gestionserie@i_437+1)& (0+255),f,b
  2738  00063A                     l3314:
  2739                           
  2740                           ; BSR set to: 0
  2741  00063A  0E88               	movlw	136
  2742  00063C  5D62               	subwf	gestionserie@i_437& (0+255),w,b
  2743  00063E  0E13               	movlw	19
  2744  000640  5963               	subwfb	(gestionserie@i_437+1)& (0+255),w,b
  2745  000642  A0D8               	btfss	status,0,c
  2746  000644  D7F8               	goto	l323
  2747                           
  2748                           ; BSR set to: 0
  2749                           ;main.c: 603: TXREG1 = heureUniteprov;
  2750  000646  C0F8  FFAD         	movff	gestionserie@heureUniteprov,4013	;volatile
  2751                           
  2752                           ; BSR set to: 0
  2753                           ;main.c: 604: for(unsigned int i=0; i<5000; i++);
  2754  00064A  0E00               	movlw	0
  2755  00064C  6F65               	movwf	(gestionserie@i_438+1)& (0+255),b
  2756  00064E  0E00               	movlw	0
  2757  000650  6F64               	movwf	gestionserie@i_438& (0+255),b
  2758  000652                     l3318:
  2759                           
  2760                           ; BSR set to: 0
  2761  000652  0E88               	movlw	136
  2762  000654  5D64               	subwf	gestionserie@i_438& (0+255),w,b
  2763  000656  0E13               	movlw	19
  2764  000658  5965               	subwfb	(gestionserie@i_438+1)& (0+255),w,b
  2765  00065A  B0D8               	btfsc	status,0,c
  2766  00065C  D003               	goto	u4070
  2767                           
  2768                           ; BSR set to: 0
  2769                           
  2770                           ; BSR set to: 0
  2771                           
  2772                           ; BSR set to: 0
  2773  00065E  4B64               	infsnz	gestionserie@i_438& (0+255),f,b
  2774  000660  2B65               	incf	(gestionserie@i_438+1)& (0+255),f,b
  2775  000662  D7F7               	goto	l3318
  2776  000664                     u4070:
  2777                           
  2778                           ; BSR set to: 0
  2779                           ;main.c: 605: TXREG1 = 'H';
  2780                           
  2781                           ; BSR set to: 0
  2782  000664  0E48               	movlw	72
  2783  000666  6EAD               	movwf	4013,c	;volatile
  2784                           
  2785                           ;main.c: 606: for(unsigned int i=0; i<5000; i++);
  2786  000668  0E00               	movlw	0
  2787  00066A  6F67               	movwf	(gestionserie@i_439+1)& (0+255),b
  2788  00066C  0E00               	movlw	0
  2789  00066E  6F66               	movwf	gestionserie@i_439& (0+255),b
  2790  000670  D002               	goto	l3334
  2791  000672                     
  2792                           ; BSR set to: 0
  2793                           
  2794                           ; BSR set to: 0
  2795  000672  4B66               	infsnz	gestionserie@i_439& (0+255),f,b
  2796  000674  2B67               	incf	(gestionserie@i_439+1)& (0+255),f,b
  2797  000676                     l3334:
  2798                           
  2799                           ; BSR set to: 0
  2800  000676  0E88               	movlw	136
  2801  000678  5D66               	subwf	gestionserie@i_439& (0+255),w,b
  2802  00067A  0E13               	movlw	19
  2803  00067C  5967               	subwfb	(gestionserie@i_439+1)& (0+255),w,b
  2804  00067E  A0D8               	btfss	status,0,c
  2805  000680  D7F8               	goto	l327
  2806                           
  2807                           ; BSR set to: 0
  2808                           ;main.c: 607: TXREG1 = minuteDizaineprov;
  2809  000682  C0F4  FFAD         	movff	gestionserie@minuteDizaineprov,4013	;volatile
  2810                           
  2811                           ; BSR set to: 0
  2812                           ;main.c: 608: for(unsigned int i=0; i<5000; i++);
  2813  000686  0E00               	movlw	0
  2814  000688  6F69               	movwf	(gestionserie@i_440+1)& (0+255),b
  2815  00068A  0E00               	movlw	0
  2816  00068C  6F68               	movwf	gestionserie@i_440& (0+255),b
  2817  00068E  D002               	goto	l3344
  2818  000690                     
  2819                           ; BSR set to: 0
  2820                           
  2821                           ; BSR set to: 0
  2822  000690  4B68               	infsnz	gestionserie@i_440& (0+255),f,b
  2823  000692  2B69               	incf	(gestionserie@i_440+1)& (0+255),f,b
  2824  000694                     l3344:
  2825                           
  2826                           ; BSR set to: 0
  2827  000694  0E88               	movlw	136
  2828  000696  5D68               	subwf	gestionserie@i_440& (0+255),w,b
  2829  000698  0E13               	movlw	19
  2830  00069A  5969               	subwfb	(gestionserie@i_440+1)& (0+255),w,b
  2831  00069C  A0D8               	btfss	status,0,c
  2832  00069E  D7F8               	goto	l329
  2833                           
  2834                           ; BSR set to: 0
  2835                           ;main.c: 609: TXREG1 = minuteUniteprov;
  2836  0006A0  C0F6  FFAD         	movff	gestionserie@minuteUniteprov,4013	;volatile
  2837                           
  2838                           ; BSR set to: 0
  2839                           ;main.c: 610: for(unsigned int i=0; i<5000; i++);
  2840  0006A4  0E00               	movlw	0
  2841  0006A6  6F6B               	movwf	(gestionserie@i_441+1)& (0+255),b
  2842  0006A8  0E00               	movlw	0
  2843  0006AA  6F6A               	movwf	gestionserie@i_441& (0+255),b
  2844  0006AC                     l3348:
  2845                           
  2846                           ; BSR set to: 0
  2847  0006AC  0E88               	movlw	136
  2848  0006AE  5D6A               	subwf	gestionserie@i_441& (0+255),w,b
  2849  0006B0  0E13               	movlw	19
  2850  0006B2  596B               	subwfb	(gestionserie@i_441+1)& (0+255),w,b
  2851  0006B4  B0D8               	btfsc	status,0,c
  2852  0006B6  D003               	goto	u4130
  2853                           
  2854                           ; BSR set to: 0
  2855                           
  2856                           ; BSR set to: 0
  2857                           
  2858                           ; BSR set to: 0
  2859  0006B8  4B6A               	infsnz	gestionserie@i_441& (0+255),f,b
  2860  0006BA  2B6B               	incf	(gestionserie@i_441+1)& (0+255),f,b
  2861  0006BC  D7F7               	goto	l3348
  2862  0006BE                     u4130:
  2863                           
  2864                           ; BSR set to: 0
  2865                           ;main.c: 611: TXREG1 = 'm';
  2866                           
  2867                           ; BSR set to: 0
  2868  0006BE  0E6D               	movlw	109
  2869  0006C0  6EAD               	movwf	4013,c	;volatile
  2870                           
  2871                           ;main.c: 612: for(unsigned int i=0; i<5000; i++);
  2872  0006C2  0E00               	movlw	0
  2873  0006C4  6F6D               	movwf	(gestionserie@i_442+1)& (0+255),b
  2874  0006C6  0E00               	movlw	0
  2875  0006C8  6F6C               	movwf	gestionserie@i_442& (0+255),b
  2876  0006CA  D002               	goto	l3364
  2877  0006CC                     
  2878                           ; BSR set to: 0
  2879                           
  2880                           ; BSR set to: 0
  2881  0006CC  4B6C               	infsnz	gestionserie@i_442& (0+255),f,b
  2882  0006CE  2B6D               	incf	(gestionserie@i_442+1)& (0+255),f,b
  2883  0006D0                     l3364:
  2884                           
  2885                           ; BSR set to: 0
  2886  0006D0  0E88               	movlw	136
  2887  0006D2  5D6C               	subwf	gestionserie@i_442& (0+255),w,b
  2888  0006D4  0E13               	movlw	19
  2889  0006D6  596D               	subwfb	(gestionserie@i_442+1)& (0+255),w,b
  2890  0006D8  A0D8               	btfss	status,0,c
  2891  0006DA  D7F8               	goto	l333
  2892                           
  2893                           ; BSR set to: 0
  2894                           ;main.c: 613: TXREG1 = secondeDizaineprov;
  2895  0006DC  C0F2  FFAD         	movff	gestionserie@secondeDizaineprov,4013	;volatile
  2896                           
  2897                           ; BSR set to: 0
  2898                           ;main.c: 614: for(unsigned int i=0; i<5000; i++);
  2899  0006E0  0E00               	movlw	0
  2900  0006E2  6F6F               	movwf	(gestionserie@i_443+1)& (0+255),b
  2901  0006E4  0E00               	movlw	0
  2902  0006E6  6F6E               	movwf	gestionserie@i_443& (0+255),b
  2903  0006E8  D002               	goto	l3374
  2904  0006EA                     
  2905                           ; BSR set to: 0
  2906                           
  2907                           ; BSR set to: 0
  2908  0006EA  4B6E               	infsnz	gestionserie@i_443& (0+255),f,b
  2909  0006EC  2B6F               	incf	(gestionserie@i_443+1)& (0+255),f,b
  2910  0006EE                     l3374:
  2911                           
  2912                           ; BSR set to: 0
  2913  0006EE  0E88               	movlw	136
  2914  0006F0  5D6E               	subwf	gestionserie@i_443& (0+255),w,b
  2915  0006F2  0E13               	movlw	19
  2916  0006F4  596F               	subwfb	(gestionserie@i_443+1)& (0+255),w,b
  2917  0006F6  A0D8               	btfss	status,0,c
  2918  0006F8  D7F8               	goto	l335
  2919                           
  2920                           ; BSR set to: 0
  2921                           ;main.c: 615: TXREG1 = secondeUniteprov;
  2922  0006FA  C0F0  FFAD         	movff	gestionserie@secondeUniteprov,4013	;volatile
  2923                           
  2924                           ; BSR set to: 0
  2925                           ;main.c: 616: for(unsigned int i=0; i<5000; i++);
  2926  0006FE  0E00               	movlw	0
  2927  000700  6F71               	movwf	(gestionserie@i_444+1)& (0+255),b
  2928  000702  0E00               	movlw	0
  2929  000704  6F70               	movwf	gestionserie@i_444& (0+255),b
  2930  000706                     l3378:
  2931                           
  2932                           ; BSR set to: 0
  2933  000706  0E88               	movlw	136
  2934  000708  5D70               	subwf	gestionserie@i_444& (0+255),w,b
  2935  00070A  0E13               	movlw	19
  2936  00070C  5971               	subwfb	(gestionserie@i_444+1)& (0+255),w,b
  2937  00070E  B0D8               	btfsc	status,0,c
  2938  000710  D003               	goto	u4190
  2939                           
  2940                           ; BSR set to: 0
  2941                           
  2942                           ; BSR set to: 0
  2943                           
  2944                           ; BSR set to: 0
  2945  000712  4B70               	infsnz	gestionserie@i_444& (0+255),f,b
  2946  000714  2B71               	incf	(gestionserie@i_444+1)& (0+255),f,b
  2947  000716  D7F7               	goto	l3378
  2948  000718                     u4190:
  2949                           
  2950                           ; BSR set to: 0
  2951                           ;main.c: 617: TXREG1 = 's';
  2952                           
  2953                           ; BSR set to: 0
  2954  000718  0E73               	movlw	115
  2955  00071A  6EAD               	movwf	4013,c	;volatile
  2956                           
  2957                           ;main.c: 619: for(unsigned int i=0; i<5000; i++);
  2958  00071C  0E00               	movlw	0
  2959  00071E  6F73               	movwf	(gestionserie@i_445+1)& (0+255),b
  2960  000720  0E00               	movlw	0
  2961  000722  6F72               	movwf	gestionserie@i_445& (0+255),b
  2962  000724                     l3388:
  2963                           
  2964                           ; BSR set to: 0
  2965  000724  0E88               	movlw	136
  2966  000726  5D72               	subwf	gestionserie@i_445& (0+255),w,b
  2967  000728  0E13               	movlw	19
  2968  00072A  5973               	subwfb	(gestionserie@i_445+1)& (0+255),w,b
  2969  00072C  B0D8               	btfsc	status,0,c
  2970  00072E  D003               	goto	u4210
  2971                           
  2972                           ; BSR set to: 0
  2973                           
  2974                           ; BSR set to: 0
  2975                           
  2976                           ; BSR set to: 0
  2977  000730  4B72               	infsnz	gestionserie@i_445& (0+255),f,b
  2978  000732  2B73               	incf	(gestionserie@i_445+1)& (0+255),f,b
  2979  000734  D7F7               	goto	l3388
  2980  000736                     u4210:
  2981                           
  2982                           ; BSR set to: 0
  2983                           ;main.c: 620: TXREG1 = '|';
  2984                           
  2985                           ; BSR set to: 0
  2986  000736  0E7C               	movlw	124
  2987  000738  6EAD               	movwf	4013,c	;volatile
  2988                           
  2989                           ;main.c: 621: for(unsigned int i=0; i<5000; i++);
  2990  00073A  0E00               	movlw	0
  2991  00073C  6F75               	movwf	(gestionserie@i_446+1)& (0+255),b
  2992  00073E  0E00               	movlw	0
  2993  000740  6F74               	movwf	gestionserie@i_446& (0+255),b
  2994  000742  D002               	goto	l3404
  2995  000744                     
  2996                           ; BSR set to: 0
  2997                           
  2998                           ; BSR set to: 0
  2999  000744  4B74               	infsnz	gestionserie@i_446& (0+255),f,b
  3000  000746  2B75               	incf	(gestionserie@i_446+1)& (0+255),f,b
  3001  000748                     l3404:
  3002                           
  3003                           ; BSR set to: 0
  3004  000748  0E88               	movlw	136
  3005  00074A  5D74               	subwf	gestionserie@i_446& (0+255),w,b
  3006  00074C  0E13               	movlw	19
  3007  00074E  5975               	subwfb	(gestionserie@i_446+1)& (0+255),w,b
  3008  000750  A0D8               	btfss	status,0,c
  3009  000752  D7F8               	goto	l341
  3010                           
  3011                           ; BSR set to: 0
  3012                           ;main.c: 622: TXREG1 = lat1prov1;
  3013  000754  C0EE  FFAD         	movff	gestionserie@lat1prov1,4013	;volatile
  3014                           
  3015                           ; BSR set to: 0
  3016                           ;main.c: 623: for(unsigned int i=0; i<5000; i++);
  3017  000758  0E00               	movlw	0
  3018  00075A  6F77               	movwf	(gestionserie@i_447+1)& (0+255),b
  3019  00075C  0E00               	movlw	0
  3020  00075E  6F76               	movwf	gestionserie@i_447& (0+255),b
  3021  000760  D002               	goto	l3414
  3022  000762                     
  3023                           ; BSR set to: 0
  3024                           
  3025                           ; BSR set to: 0
  3026  000762  4B76               	infsnz	gestionserie@i_447& (0+255),f,b
  3027  000764  2B77               	incf	(gestionserie@i_447+1)& (0+255),f,b
  3028  000766                     l3414:
  3029                           
  3030                           ; BSR set to: 0
  3031  000766  0E88               	movlw	136
  3032  000768  5D76               	subwf	gestionserie@i_447& (0+255),w,b
  3033  00076A  0E13               	movlw	19
  3034  00076C  5977               	subwfb	(gestionserie@i_447+1)& (0+255),w,b
  3035  00076E  A0D8               	btfss	status,0,c
  3036  000770  D7F8               	goto	l343
  3037                           
  3038                           ; BSR set to: 0
  3039                           ;main.c: 624: TXREG1 = lat1prov2;
  3040  000772  C0EC  FFAD         	movff	gestionserie@lat1prov2,4013	;volatile
  3041                           
  3042                           ; BSR set to: 0
  3043                           ;main.c: 625: for(unsigned int i=0; i<5000; i++);
  3044  000776  0E00               	movlw	0
  3045  000778  6F79               	movwf	(gestionserie@i_448+1)& (0+255),b
  3046  00077A  0E00               	movlw	0
  3047  00077C  6F78               	movwf	gestionserie@i_448& (0+255),b
  3048  00077E  D002               	goto	l3424
  3049  000780                     
  3050                           ; BSR set to: 0
  3051                           
  3052                           ; BSR set to: 0
  3053  000780  4B78               	infsnz	gestionserie@i_448& (0+255),f,b
  3054  000782  2B79               	incf	(gestionserie@i_448+1)& (0+255),f,b
  3055  000784                     l3424:
  3056                           
  3057                           ; BSR set to: 0
  3058  000784  0E88               	movlw	136
  3059  000786  5D78               	subwf	gestionserie@i_448& (0+255),w,b
  3060  000788  0E13               	movlw	19
  3061  00078A  5979               	subwfb	(gestionserie@i_448+1)& (0+255),w,b
  3062  00078C  A0D8               	btfss	status,0,c
  3063  00078E  D7F8               	goto	l345
  3064                           
  3065                           ; BSR set to: 0
  3066                           ;main.c: 626: TXREG1 = lat1prov3;
  3067  000790  C0EA  FFAD         	movff	gestionserie@lat1prov3,4013	;volatile
  3068                           
  3069                           ; BSR set to: 0
  3070                           ;main.c: 627: for(unsigned int i=0; i<5000; i++);
  3071  000794  0E00               	movlw	0
  3072  000796  6F7B               	movwf	(gestionserie@i_449+1)& (0+255),b
  3073  000798  0E00               	movlw	0
  3074  00079A  6F7A               	movwf	gestionserie@i_449& (0+255),b
  3075  00079C  D002               	goto	l3434
  3076  00079E                     
  3077                           ; BSR set to: 0
  3078                           
  3079                           ; BSR set to: 0
  3080  00079E  4B7A               	infsnz	gestionserie@i_449& (0+255),f,b
  3081  0007A0  2B7B               	incf	(gestionserie@i_449+1)& (0+255),f,b
  3082  0007A2                     l3434:
  3083                           
  3084                           ; BSR set to: 0
  3085  0007A2  0E88               	movlw	136
  3086  0007A4  5D7A               	subwf	gestionserie@i_449& (0+255),w,b
  3087  0007A6  0E13               	movlw	19
  3088  0007A8  597B               	subwfb	(gestionserie@i_449+1)& (0+255),w,b
  3089  0007AA  A0D8               	btfss	status,0,c
  3090  0007AC  D7F8               	goto	l347
  3091                           
  3092                           ; BSR set to: 0
  3093                           ;main.c: 628: TXREG1 = lat1prov4;
  3094  0007AE  C0E8  FFAD         	movff	gestionserie@lat1prov4,4013	;volatile
  3095                           
  3096                           ; BSR set to: 0
  3097                           ;main.c: 629: for(unsigned int i=0; i<5000; i++);
  3098  0007B2  0E00               	movlw	0
  3099  0007B4  6F7D               	movwf	(gestionserie@i_450+1)& (0+255),b
  3100  0007B6  0E00               	movlw	0
  3101  0007B8  6F7C               	movwf	gestionserie@i_450& (0+255),b
  3102  0007BA  D002               	goto	l3444
  3103  0007BC                     
  3104                           ; BSR set to: 0
  3105                           
  3106                           ; BSR set to: 0
  3107  0007BC  4B7C               	infsnz	gestionserie@i_450& (0+255),f,b
  3108  0007BE  2B7D               	incf	(gestionserie@i_450+1)& (0+255),f,b
  3109  0007C0                     l3444:
  3110                           
  3111                           ; BSR set to: 0
  3112  0007C0  0E88               	movlw	136
  3113  0007C2  5D7C               	subwf	gestionserie@i_450& (0+255),w,b
  3114  0007C4  0E13               	movlw	19
  3115  0007C6  597D               	subwfb	(gestionserie@i_450+1)& (0+255),w,b
  3116  0007C8  A0D8               	btfss	status,0,c
  3117  0007CA  D7F8               	goto	l349
  3118                           
  3119                           ; BSR set to: 0
  3120                           ;main.c: 630: TXREG1 = lat1provP;
  3121  0007CC  C0E6  FFAD         	movff	gestionserie@lat1provP,4013	;volatile
  3122                           
  3123                           ; BSR set to: 0
  3124                           ;main.c: 631: for(unsigned int i=0; i<5000; i++);
  3125  0007D0  0E00               	movlw	0
  3126  0007D2  6F7F               	movwf	(gestionserie@i_451+1)& (0+255),b
  3127  0007D4  0E00               	movlw	0
  3128  0007D6  6F7E               	movwf	gestionserie@i_451& (0+255),b
  3129  0007D8  D002               	goto	l3454
  3130  0007DA                     
  3131                           ; BSR set to: 0
  3132                           
  3133                           ; BSR set to: 0
  3134  0007DA  4B7E               	infsnz	gestionserie@i_451& (0+255),f,b
  3135  0007DC  2B7F               	incf	(gestionserie@i_451+1)& (0+255),f,b
  3136  0007DE                     l3454:
  3137                           
  3138                           ; BSR set to: 0
  3139  0007DE  0E88               	movlw	136
  3140  0007E0  5D7E               	subwf	gestionserie@i_451& (0+255),w,b
  3141  0007E2  0E13               	movlw	19
  3142  0007E4  597F               	subwfb	(gestionserie@i_451+1)& (0+255),w,b
  3143  0007E6  A0D8               	btfss	status,0,c
  3144  0007E8  D7F8               	goto	l351
  3145                           
  3146                           ; BSR set to: 0
  3147                           ;main.c: 632: TXREG1 = lat1prov5;
  3148  0007EA  C0E4  FFAD         	movff	gestionserie@lat1prov5,4013	;volatile
  3149                           
  3150                           ; BSR set to: 0
  3151                           ;main.c: 633: for(unsigned int i=0; i<5000; i++);
  3152  0007EE  0E00               	movlw	0
  3153  0007F0  6F81               	movwf	(gestionserie@i_452+1)& (0+255),b
  3154  0007F2  0E00               	movlw	0
  3155  0007F4  6F80               	movwf	gestionserie@i_452& (0+255),b
  3156  0007F6  D002               	goto	l3464
  3157  0007F8                     
  3158                           ; BSR set to: 0
  3159                           
  3160                           ; BSR set to: 0
  3161  0007F8  4B80               	infsnz	gestionserie@i_452& (0+255),f,b
  3162  0007FA  2B81               	incf	(gestionserie@i_452+1)& (0+255),f,b
  3163  0007FC                     l3464:
  3164                           
  3165                           ; BSR set to: 0
  3166  0007FC  0E88               	movlw	136
  3167  0007FE  5D80               	subwf	gestionserie@i_452& (0+255),w,b
  3168  000800  0E13               	movlw	19
  3169  000802  5981               	subwfb	(gestionserie@i_452+1)& (0+255),w,b
  3170  000804  A0D8               	btfss	status,0,c
  3171  000806  D7F8               	goto	l353
  3172                           
  3173                           ; BSR set to: 0
  3174                           ;main.c: 634: TXREG1 = lat1prov6;
  3175  000808  C0E2  FFAD         	movff	gestionserie@lat1prov6,4013	;volatile
  3176                           
  3177                           ; BSR set to: 0
  3178                           ;main.c: 635: for(unsigned int i=0; i<5000; i++);
  3179  00080C  0E00               	movlw	0
  3180  00080E  6F83               	movwf	(gestionserie@i_453+1)& (0+255),b
  3181  000810  0E00               	movlw	0
  3182  000812  6F82               	movwf	gestionserie@i_453& (0+255),b
  3183  000814  D002               	goto	l3474
  3184  000816                     
  3185                           ; BSR set to: 0
  3186                           
  3187                           ; BSR set to: 0
  3188  000816  4B82               	infsnz	gestionserie@i_453& (0+255),f,b
  3189  000818  2B83               	incf	(gestionserie@i_453+1)& (0+255),f,b
  3190  00081A                     l3474:
  3191                           
  3192                           ; BSR set to: 0
  3193  00081A  0E88               	movlw	136
  3194  00081C  5D82               	subwf	gestionserie@i_453& (0+255),w,b
  3195  00081E  0E13               	movlw	19
  3196  000820  5983               	subwfb	(gestionserie@i_453+1)& (0+255),w,b
  3197  000822  A0D8               	btfss	status,0,c
  3198  000824  D7F8               	goto	l355
  3199                           
  3200                           ; BSR set to: 0
  3201                           ;main.c: 636: TXREG1 = lat1prov7;
  3202  000826  C0E0  FFAD         	movff	gestionserie@lat1prov7,4013	;volatile
  3203                           
  3204                           ; BSR set to: 0
  3205                           ;main.c: 637: for(unsigned int i=0; i<5000; i++);
  3206  00082A  0E00               	movlw	0
  3207  00082C  6F85               	movwf	(gestionserie@i_454+1)& (0+255),b
  3208  00082E  0E00               	movlw	0
  3209  000830  6F84               	movwf	gestionserie@i_454& (0+255),b
  3210  000832  D002               	goto	l3484
  3211  000834                     
  3212                           ; BSR set to: 0
  3213                           
  3214                           ; BSR set to: 0
  3215  000834  4B84               	infsnz	gestionserie@i_454& (0+255),f,b
  3216  000836  2B85               	incf	(gestionserie@i_454+1)& (0+255),f,b
  3217  000838                     l3484:
  3218                           
  3219                           ; BSR set to: 0
  3220  000838  0E88               	movlw	136
  3221  00083A  5D84               	subwf	gestionserie@i_454& (0+255),w,b
  3222  00083C  0E13               	movlw	19
  3223  00083E  5985               	subwfb	(gestionserie@i_454+1)& (0+255),w,b
  3224  000840  A0D8               	btfss	status,0,c
  3225  000842  D7F8               	goto	l357
  3226                           
  3227                           ; BSR set to: 0
  3228                           ;main.c: 638: TXREG1 = lat1prov8;
  3229  000844  C0DE  FFAD         	movff	gestionserie@lat1prov8,4013	;volatile
  3230                           
  3231                           ; BSR set to: 0
  3232                           ;main.c: 639: for(unsigned int i=0; i<5000; i++);
  3233  000848  0E00               	movlw	0
  3234  00084A  6F87               	movwf	(gestionserie@i_455+1)& (0+255),b
  3235  00084C  0E00               	movlw	0
  3236  00084E  6F86               	movwf	gestionserie@i_455& (0+255),b
  3237  000850  D002               	goto	l3494
  3238  000852                     
  3239                           ; BSR set to: 0
  3240                           
  3241                           ; BSR set to: 0
  3242  000852  4B86               	infsnz	gestionserie@i_455& (0+255),f,b
  3243  000854  2B87               	incf	(gestionserie@i_455+1)& (0+255),f,b
  3244  000856                     l3494:
  3245                           
  3246                           ; BSR set to: 0
  3247  000856  0E88               	movlw	136
  3248  000858  5D86               	subwf	gestionserie@i_455& (0+255),w,b
  3249  00085A  0E13               	movlw	19
  3250  00085C  5987               	subwfb	(gestionserie@i_455+1)& (0+255),w,b
  3251  00085E  A0D8               	btfss	status,0,c
  3252  000860  D7F8               	goto	l359
  3253                           
  3254                           ; BSR set to: 0
  3255                           ;main.c: 640: TXREG1 = N_Sprov;
  3256  000862  C0FC  FFAD         	movff	gestionserie@N_Sprov,4013	;volatile
  3257                           
  3258                           ; BSR set to: 0
  3259                           ;main.c: 642: for(unsigned int i=0; i<5000; i++);
  3260  000866  0E00               	movlw	0
  3261  000868  6F89               	movwf	(gestionserie@i_456+1)& (0+255),b
  3262  00086A  0E00               	movlw	0
  3263  00086C  6F88               	movwf	gestionserie@i_456& (0+255),b
  3264  00086E                     l3498:
  3265                           
  3266                           ; BSR set to: 0
  3267  00086E  0E88               	movlw	136
  3268  000870  5D88               	subwf	gestionserie@i_456& (0+255),w,b
  3269  000872  0E13               	movlw	19
  3270  000874  5989               	subwfb	(gestionserie@i_456+1)& (0+255),w,b
  3271  000876  B0D8               	btfsc	status,0,c
  3272  000878  D003               	goto	u4430
  3273                           
  3274                           ; BSR set to: 0
  3275                           
  3276                           ; BSR set to: 0
  3277                           
  3278                           ; BSR set to: 0
  3279  00087A  4B88               	infsnz	gestionserie@i_456& (0+255),f,b
  3280  00087C  2B89               	incf	(gestionserie@i_456+1)& (0+255),f,b
  3281  00087E  D7F7               	goto	l3498
  3282  000880                     u4430:
  3283                           
  3284                           ; BSR set to: 0
  3285                           ;main.c: 643: TXREG1 = '|';
  3286                           
  3287                           ; BSR set to: 0
  3288  000880  0E7C               	movlw	124
  3289  000882  6EAD               	movwf	4013,c	;volatile
  3290                           
  3291                           ;main.c: 644: for(unsigned int i=0; i<5000; i++);
  3292  000884  0E00               	movlw	0
  3293  000886  6F8B               	movwf	(gestionserie@i_457+1)& (0+255),b
  3294  000888  0E00               	movlw	0
  3295  00088A  6F8A               	movwf	gestionserie@i_457& (0+255),b
  3296  00088C  D002               	goto	l3514
  3297  00088E                     
  3298                           ; BSR set to: 0
  3299                           
  3300                           ; BSR set to: 0
  3301  00088E  4B8A               	infsnz	gestionserie@i_457& (0+255),f,b
  3302  000890  2B8B               	incf	(gestionserie@i_457+1)& (0+255),f,b
  3303  000892                     l3514:
  3304                           
  3305                           ; BSR set to: 0
  3306  000892  0E88               	movlw	136
  3307  000894  5D8A               	subwf	gestionserie@i_457& (0+255),w,b
  3308  000896  0E13               	movlw	19
  3309  000898  598B               	subwfb	(gestionserie@i_457+1)& (0+255),w,b
  3310  00089A  A0D8               	btfss	status,0,c
  3311  00089C  D7F8               	goto	l363
  3312                           
  3313                           ; BSR set to: 0
  3314                           ;main.c: 645: TXREG1 = dayDizaineprov;
  3315  00089E  C032  FFAD         	movff	gestionserie@dayDizaineprov,4013	;volatile
  3316                           
  3317                           ; BSR set to: 0
  3318                           ;main.c: 646: for(unsigned int i=0; i<5000; i++);
  3319  0008A2  0E00               	movlw	0
  3320  0008A4  6F8D               	movwf	(gestionserie@i_458+1)& (0+255),b
  3321  0008A6  0E00               	movlw	0
  3322  0008A8  6F8C               	movwf	gestionserie@i_458& (0+255),b
  3323  0008AA  D002               	goto	l3524
  3324  0008AC                     
  3325                           ; BSR set to: 0
  3326                           
  3327                           ; BSR set to: 0
  3328  0008AC  4B8C               	infsnz	gestionserie@i_458& (0+255),f,b
  3329  0008AE  2B8D               	incf	(gestionserie@i_458+1)& (0+255),f,b
  3330  0008B0                     l3524:
  3331                           
  3332                           ; BSR set to: 0
  3333  0008B0  0E88               	movlw	136
  3334  0008B2  5D8C               	subwf	gestionserie@i_458& (0+255),w,b
  3335  0008B4  0E13               	movlw	19
  3336  0008B6  598D               	subwfb	(gestionserie@i_458+1)& (0+255),w,b
  3337  0008B8  A0D8               	btfss	status,0,c
  3338  0008BA  D7F8               	goto	l365
  3339                           
  3340                           ; BSR set to: 0
  3341                           ;main.c: 647: TXREG1 = dayUniteprov;
  3342  0008BC  C030  FFAD         	movff	gestionserie@dayUniteprov,4013	;volatile
  3343                           
  3344                           ; BSR set to: 0
  3345                           ;main.c: 648: for(unsigned int i=0; i<5000; i++);
  3346  0008C0  0E00               	movlw	0
  3347  0008C2  6F8F               	movwf	(gestionserie@i_459+1)& (0+255),b
  3348  0008C4  0E00               	movlw	0
  3349  0008C6  6F8E               	movwf	gestionserie@i_459& (0+255),b
  3350  0008C8                     l3528:
  3351                           
  3352                           ; BSR set to: 0
  3353  0008C8  0E88               	movlw	136
  3354  0008CA  5D8E               	subwf	gestionserie@i_459& (0+255),w,b
  3355  0008CC  0E13               	movlw	19
  3356  0008CE  598F               	subwfb	(gestionserie@i_459+1)& (0+255),w,b
  3357  0008D0  B0D8               	btfsc	status,0,c
  3358  0008D2  D003               	goto	u4490
  3359                           
  3360                           ; BSR set to: 0
  3361                           
  3362                           ; BSR set to: 0
  3363                           
  3364                           ; BSR set to: 0
  3365  0008D4  4B8E               	infsnz	gestionserie@i_459& (0+255),f,b
  3366  0008D6  2B8F               	incf	(gestionserie@i_459+1)& (0+255),f,b
  3367  0008D8  D7F7               	goto	l3528
  3368  0008DA                     u4490:
  3369                           
  3370                           ; BSR set to: 0
  3371                           ;main.c: 649: TXREG1 = '/';
  3372                           
  3373                           ; BSR set to: 0
  3374  0008DA  0E2F               	movlw	47
  3375  0008DC  6EAD               	movwf	4013,c	;volatile
  3376                           
  3377                           ;main.c: 650: for(unsigned int i=0; i<5000; i++);
  3378  0008DE  0E00               	movlw	0
  3379  0008E0  6F91               	movwf	(gestionserie@i_460+1)& (0+255),b
  3380  0008E2  0E00               	movlw	0
  3381  0008E4  6F90               	movwf	gestionserie@i_460& (0+255),b
  3382  0008E6  D002               	goto	l3544
  3383  0008E8                     
  3384                           ; BSR set to: 0
  3385                           
  3386                           ; BSR set to: 0
  3387  0008E8  4B90               	infsnz	gestionserie@i_460& (0+255),f,b
  3388  0008EA  2B91               	incf	(gestionserie@i_460+1)& (0+255),f,b
  3389  0008EC                     l3544:
  3390                           
  3391                           ; BSR set to: 0
  3392  0008EC  0E88               	movlw	136
  3393  0008EE  5D90               	subwf	gestionserie@i_460& (0+255),w,b
  3394  0008F0  0E13               	movlw	19
  3395  0008F2  5991               	subwfb	(gestionserie@i_460+1)& (0+255),w,b
  3396  0008F4  A0D8               	btfss	status,0,c
  3397  0008F6  D7F8               	goto	l369
  3398                           
  3399                           ; BSR set to: 0
  3400                           ;main.c: 651: TXREG1 = monthDizaineprov;
  3401  0008F8  C02E  FFAD         	movff	gestionserie@monthDizaineprov,4013	;volatile
  3402                           
  3403                           ; BSR set to: 0
  3404                           ;main.c: 652: for(unsigned int i=0; i<5000; i++);
  3405  0008FC  0E00               	movlw	0
  3406  0008FE  6F93               	movwf	(gestionserie@i_461+1)& (0+255),b
  3407  000900  0E00               	movlw	0
  3408  000902  6F92               	movwf	gestionserie@i_461& (0+255),b
  3409  000904  D002               	goto	l3554
  3410  000906                     
  3411                           ; BSR set to: 0
  3412                           
  3413                           ; BSR set to: 0
  3414  000906  4B92               	infsnz	gestionserie@i_461& (0+255),f,b
  3415  000908  2B93               	incf	(gestionserie@i_461+1)& (0+255),f,b
  3416  00090A                     l3554:
  3417                           
  3418                           ; BSR set to: 0
  3419  00090A  0E88               	movlw	136
  3420  00090C  5D92               	subwf	gestionserie@i_461& (0+255),w,b
  3421  00090E  0E13               	movlw	19
  3422  000910  5993               	subwfb	(gestionserie@i_461+1)& (0+255),w,b
  3423  000912  A0D8               	btfss	status,0,c
  3424  000914  D7F8               	goto	l371
  3425                           
  3426                           ; BSR set to: 0
  3427                           ;main.c: 653: TXREG1 = monthUniteprov;
  3428  000916  C02C  FFAD         	movff	gestionserie@monthUniteprov,4013	;volatile
  3429                           
  3430                           ; BSR set to: 0
  3431                           ;main.c: 654: for(unsigned int i=0; i<5000; i++);
  3432  00091A  0E00               	movlw	0
  3433  00091C  6F95               	movwf	(gestionserie@i_462+1)& (0+255),b
  3434  00091E  0E00               	movlw	0
  3435  000920  6F94               	movwf	gestionserie@i_462& (0+255),b
  3436  000922                     l3558:
  3437                           
  3438                           ; BSR set to: 0
  3439  000922  0E88               	movlw	136
  3440  000924  5D94               	subwf	gestionserie@i_462& (0+255),w,b
  3441  000926  0E13               	movlw	19
  3442  000928  5995               	subwfb	(gestionserie@i_462+1)& (0+255),w,b
  3443  00092A  B0D8               	btfsc	status,0,c
  3444  00092C  D003               	goto	u4550
  3445                           
  3446                           ; BSR set to: 0
  3447                           
  3448                           ; BSR set to: 0
  3449                           
  3450                           ; BSR set to: 0
  3451  00092E  4B94               	infsnz	gestionserie@i_462& (0+255),f,b
  3452  000930  2B95               	incf	(gestionserie@i_462+1)& (0+255),f,b
  3453  000932  D7F7               	goto	l3558
  3454  000934                     u4550:
  3455                           
  3456                           ; BSR set to: 0
  3457                           ;main.c: 655: TXREG1 = '/';
  3458                           
  3459                           ; BSR set to: 0
  3460  000934  0E2F               	movlw	47
  3461  000936  6EAD               	movwf	4013,c	;volatile
  3462                           
  3463                           ;main.c: 656: for(unsigned int i=0; i<5000; i++);
  3464  000938  0E00               	movlw	0
  3465  00093A  6F97               	movwf	(gestionserie@i_463+1)& (0+255),b
  3466  00093C  0E00               	movlw	0
  3467  00093E  6F96               	movwf	gestionserie@i_463& (0+255),b
  3468  000940  D002               	goto	l3574
  3469  000942                     
  3470                           ; BSR set to: 0
  3471                           
  3472                           ; BSR set to: 0
  3473  000942  4B96               	infsnz	gestionserie@i_463& (0+255),f,b
  3474  000944  2B97               	incf	(gestionserie@i_463+1)& (0+255),f,b
  3475  000946                     l3574:
  3476                           
  3477                           ; BSR set to: 0
  3478  000946  0E88               	movlw	136
  3479  000948  5D96               	subwf	gestionserie@i_463& (0+255),w,b
  3480  00094A  0E13               	movlw	19
  3481  00094C  5997               	subwfb	(gestionserie@i_463+1)& (0+255),w,b
  3482  00094E  A0D8               	btfss	status,0,c
  3483  000950  D7F8               	goto	l375
  3484                           
  3485                           ; BSR set to: 0
  3486                           ;main.c: 657: TXREG1 = yearDizaineprov;
  3487  000952  C02A  FFAD         	movff	gestionserie@yearDizaineprov,4013	;volatile
  3488                           
  3489                           ; BSR set to: 0
  3490                           ;main.c: 658: for(unsigned int i=0; i<5000; i++);
  3491  000956  0E00               	movlw	0
  3492  000958  6F99               	movwf	(gestionserie@i_464+1)& (0+255),b
  3493  00095A  0E00               	movlw	0
  3494  00095C  6F98               	movwf	gestionserie@i_464& (0+255),b
  3495  00095E  D002               	goto	l3584
  3496  000960                     
  3497                           ; BSR set to: 0
  3498                           
  3499                           ; BSR set to: 0
  3500  000960  4B98               	infsnz	gestionserie@i_464& (0+255),f,b
  3501  000962  2B99               	incf	(gestionserie@i_464+1)& (0+255),f,b
  3502  000964                     l3584:
  3503                           
  3504                           ; BSR set to: 0
  3505  000964  0E88               	movlw	136
  3506  000966  5D98               	subwf	gestionserie@i_464& (0+255),w,b
  3507  000968  0E13               	movlw	19
  3508  00096A  5999               	subwfb	(gestionserie@i_464+1)& (0+255),w,b
  3509  00096C  A0D8               	btfss	status,0,c
  3510  00096E  D7F8               	goto	l377
  3511                           
  3512                           ; BSR set to: 0
  3513                           ;main.c: 659: TXREG1 = yearUniteprov;
  3514  000970  C028  FFAD         	movff	gestionserie@yearUniteprov,4013	;volatile
  3515                           
  3516                           ; BSR set to: 0
  3517                           ;main.c: 661: for(unsigned int i=0; i<5000; i++);
  3518  000974  0E00               	movlw	0
  3519  000976  6F9B               	movwf	(gestionserie@i_465+1)& (0+255),b
  3520  000978  0E00               	movlw	0
  3521  00097A  6F9A               	movwf	gestionserie@i_465& (0+255),b
  3522  00097C                     l3588:
  3523                           
  3524                           ; BSR set to: 0
  3525  00097C  0E88               	movlw	136
  3526  00097E  5D9A               	subwf	gestionserie@i_465& (0+255),w,b
  3527  000980  0E13               	movlw	19
  3528  000982  599B               	subwfb	(gestionserie@i_465+1)& (0+255),w,b
  3529  000984  B0D8               	btfsc	status,0,c
  3530  000986  D003               	goto	u4610
  3531                           
  3532                           ; BSR set to: 0
  3533                           
  3534                           ; BSR set to: 0
  3535                           
  3536                           ; BSR set to: 0
  3537  000988  4B9A               	infsnz	gestionserie@i_465& (0+255),f,b
  3538  00098A  2B9B               	incf	(gestionserie@i_465+1)& (0+255),f,b
  3539  00098C  D7F7               	goto	l3588
  3540  00098E                     u4610:
  3541                           
  3542                           ; BSR set to: 0
  3543                           ;main.c: 662: TXREG1 = '|';
  3544                           
  3545                           ; BSR set to: 0
  3546  00098E  0E7C               	movlw	124
  3547  000990  6EAD               	movwf	4013,c	;volatile
  3548                           
  3549                           ;main.c: 663: for(unsigned int i=0; i<5000; i++);
  3550  000992  0E00               	movlw	0
  3551  000994  6F9D               	movwf	(gestionserie@i_466+1)& (0+255),b
  3552  000996  0E00               	movlw	0
  3553  000998  6F9C               	movwf	gestionserie@i_466& (0+255),b
  3554  00099A  D002               	goto	l3604
  3555  00099C                     
  3556                           ; BSR set to: 0
  3557                           
  3558                           ; BSR set to: 0
  3559  00099C  4B9C               	infsnz	gestionserie@i_466& (0+255),f,b
  3560  00099E  2B9D               	incf	(gestionserie@i_466+1)& (0+255),f,b
  3561  0009A0                     l3604:
  3562                           
  3563                           ; BSR set to: 0
  3564  0009A0  0E88               	movlw	136
  3565  0009A2  5D9C               	subwf	gestionserie@i_466& (0+255),w,b
  3566  0009A4  0E13               	movlw	19
  3567  0009A6  599D               	subwfb	(gestionserie@i_466+1)& (0+255),w,b
  3568  0009A8  A0D8               	btfss	status,0,c
  3569  0009AA  D7F8               	goto	l381
  3570                           
  3571                           ; BSR set to: 0
  3572                           ;main.c: 664: TXREG1 = long1prov1;
  3573  0009AC  C0DC  FFAD         	movff	gestionserie@long1prov1,4013	;volatile
  3574                           
  3575                           ; BSR set to: 0
  3576                           ;main.c: 665: for(unsigned int i=0; i<5000; i++);
  3577  0009B0  0E00               	movlw	0
  3578  0009B2  6F9F               	movwf	(gestionserie@i_467+1)& (0+255),b
  3579  0009B4  0E00               	movlw	0
  3580  0009B6  6F9E               	movwf	gestionserie@i_467& (0+255),b
  3581  0009B8  D002               	goto	l3614
  3582  0009BA                     
  3583                           ; BSR set to: 0
  3584                           
  3585                           ; BSR set to: 0
  3586  0009BA  4B9E               	infsnz	gestionserie@i_467& (0+255),f,b
  3587  0009BC  2B9F               	incf	(gestionserie@i_467+1)& (0+255),f,b
  3588  0009BE                     l3614:
  3589                           
  3590                           ; BSR set to: 0
  3591  0009BE  0E88               	movlw	136
  3592  0009C0  5D9E               	subwf	gestionserie@i_467& (0+255),w,b
  3593  0009C2  0E13               	movlw	19
  3594  0009C4  599F               	subwfb	(gestionserie@i_467+1)& (0+255),w,b
  3595  0009C6  A0D8               	btfss	status,0,c
  3596  0009C8  D7F8               	goto	l383
  3597                           
  3598                           ; BSR set to: 0
  3599                           ;main.c: 666: TXREG1 = long1prov2;
  3600  0009CA  C0DA  FFAD         	movff	gestionserie@long1prov2,4013	;volatile
  3601                           
  3602                           ; BSR set to: 0
  3603                           ;main.c: 667: for(unsigned int i=0; i<5000; i++);
  3604  0009CE  0E00               	movlw	0
  3605  0009D0  6FA1               	movwf	(gestionserie@i_468+1)& (0+255),b
  3606  0009D2  0E00               	movlw	0
  3607  0009D4  6FA0               	movwf	gestionserie@i_468& (0+255),b
  3608  0009D6  D002               	goto	l3624
  3609  0009D8                     
  3610                           ; BSR set to: 0
  3611                           
  3612                           ; BSR set to: 0
  3613  0009D8  4BA0               	infsnz	gestionserie@i_468& (0+255),f,b
  3614  0009DA  2BA1               	incf	(gestionserie@i_468+1)& (0+255),f,b
  3615  0009DC                     l3624:
  3616                           
  3617                           ; BSR set to: 0
  3618  0009DC  0E88               	movlw	136
  3619  0009DE  5DA0               	subwf	gestionserie@i_468& (0+255),w,b
  3620  0009E0  0E13               	movlw	19
  3621  0009E2  59A1               	subwfb	(gestionserie@i_468+1)& (0+255),w,b
  3622  0009E4  A0D8               	btfss	status,0,c
  3623  0009E6  D7F8               	goto	l385
  3624                           
  3625                           ; BSR set to: 0
  3626                           ;main.c: 668: TXREG1 = long1prov3;
  3627  0009E8  C0D8  FFAD         	movff	gestionserie@long1prov3,4013	;volatile
  3628                           
  3629                           ; BSR set to: 0
  3630                           ;main.c: 669: for(unsigned int i=0; i<5000; i++);
  3631  0009EC  0E00               	movlw	0
  3632  0009EE  6FA3               	movwf	(gestionserie@i_469+1)& (0+255),b
  3633  0009F0  0E00               	movlw	0
  3634  0009F2  6FA2               	movwf	gestionserie@i_469& (0+255),b
  3635  0009F4  D002               	goto	l3634
  3636  0009F6                     
  3637                           ; BSR set to: 0
  3638                           
  3639                           ; BSR set to: 0
  3640  0009F6  4BA2               	infsnz	gestionserie@i_469& (0+255),f,b
  3641  0009F8  2BA3               	incf	(gestionserie@i_469+1)& (0+255),f,b
  3642  0009FA                     l3634:
  3643                           
  3644                           ; BSR set to: 0
  3645  0009FA  0E88               	movlw	136
  3646  0009FC  5DA2               	subwf	gestionserie@i_469& (0+255),w,b
  3647  0009FE  0E13               	movlw	19
  3648  000A00  59A3               	subwfb	(gestionserie@i_469+1)& (0+255),w,b
  3649  000A02  A0D8               	btfss	status,0,c
  3650  000A04  D7F8               	goto	l387
  3651                           
  3652                           ; BSR set to: 0
  3653                           ;main.c: 670: TXREG1 = long1prov4;
  3654  000A06  C0D6  FFAD         	movff	gestionserie@long1prov4,4013	;volatile
  3655                           
  3656                           ; BSR set to: 0
  3657                           ;main.c: 671: for(unsigned int i=0; i<5000; i++);
  3658  000A0A  0E00               	movlw	0
  3659  000A0C  6FA5               	movwf	(gestionserie@i_470+1)& (0+255),b
  3660  000A0E  0E00               	movlw	0
  3661  000A10  6FA4               	movwf	gestionserie@i_470& (0+255),b
  3662  000A12  D002               	goto	l3644
  3663  000A14                     
  3664                           ; BSR set to: 0
  3665                           
  3666                           ; BSR set to: 0
  3667  000A14  4BA4               	infsnz	gestionserie@i_470& (0+255),f,b
  3668  000A16  2BA5               	incf	(gestionserie@i_470+1)& (0+255),f,b
  3669  000A18                     l3644:
  3670                           
  3671                           ; BSR set to: 0
  3672  000A18  0E88               	movlw	136
  3673  000A1A  5DA4               	subwf	gestionserie@i_470& (0+255),w,b
  3674  000A1C  0E13               	movlw	19
  3675  000A1E  59A5               	subwfb	(gestionserie@i_470+1)& (0+255),w,b
  3676  000A20  A0D8               	btfss	status,0,c
  3677  000A22  D7F8               	goto	l389
  3678                           
  3679                           ; BSR set to: 0
  3680                           ;main.c: 672: TXREG1 = long1prov5;
  3681  000A24  C0D4  FFAD         	movff	gestionserie@long1prov5,4013	;volatile
  3682                           
  3683                           ; BSR set to: 0
  3684                           ;main.c: 673: for(unsigned int i=0; i<5000; i++);
  3685  000A28  0E00               	movlw	0
  3686  000A2A  6FA7               	movwf	(gestionserie@i_471+1)& (0+255),b
  3687  000A2C  0E00               	movlw	0
  3688  000A2E  6FA6               	movwf	gestionserie@i_471& (0+255),b
  3689  000A30  D002               	goto	l3654
  3690  000A32                     
  3691                           ; BSR set to: 0
  3692                           
  3693                           ; BSR set to: 0
  3694  000A32  4BA6               	infsnz	gestionserie@i_471& (0+255),f,b
  3695  000A34  2BA7               	incf	(gestionserie@i_471+1)& (0+255),f,b
  3696  000A36                     l3654:
  3697                           
  3698                           ; BSR set to: 0
  3699  000A36  0E88               	movlw	136
  3700  000A38  5DA6               	subwf	gestionserie@i_471& (0+255),w,b
  3701  000A3A  0E13               	movlw	19
  3702  000A3C  59A7               	subwfb	(gestionserie@i_471+1)& (0+255),w,b
  3703  000A3E  A0D8               	btfss	status,0,c
  3704  000A40  D7F8               	goto	l391
  3705                           
  3706                           ; BSR set to: 0
  3707                           ;main.c: 674: TXREG1 = long1provP;
  3708  000A42  C0D2  FFAD         	movff	gestionserie@long1provP,4013	;volatile
  3709                           
  3710                           ; BSR set to: 0
  3711                           ;main.c: 675: for(unsigned int i=0; i<5000; i++);
  3712  000A46  0E00               	movlw	0
  3713  000A48  6FA9               	movwf	(gestionserie@i_472+1)& (0+255),b
  3714  000A4A  0E00               	movlw	0
  3715  000A4C  6FA8               	movwf	gestionserie@i_472& (0+255),b
  3716  000A4E  D002               	goto	l3664
  3717  000A50                     
  3718                           ; BSR set to: 0
  3719                           
  3720                           ; BSR set to: 0
  3721  000A50  4BA8               	infsnz	gestionserie@i_472& (0+255),f,b
  3722  000A52  2BA9               	incf	(gestionserie@i_472+1)& (0+255),f,b
  3723  000A54                     l3664:
  3724                           
  3725                           ; BSR set to: 0
  3726  000A54  0E88               	movlw	136
  3727  000A56  5DA8               	subwf	gestionserie@i_472& (0+255),w,b
  3728  000A58  0E13               	movlw	19
  3729  000A5A  59A9               	subwfb	(gestionserie@i_472+1)& (0+255),w,b
  3730  000A5C  A0D8               	btfss	status,0,c
  3731  000A5E  D7F8               	goto	l393
  3732                           
  3733                           ; BSR set to: 0
  3734                           ;main.c: 676: TXREG1 = long1prov6;
  3735  000A60  C0D0  FFAD         	movff	gestionserie@long1prov6,4013	;volatile
  3736                           
  3737                           ; BSR set to: 0
  3738                           ;main.c: 677: for(unsigned int i=0; i<5000; i++);
  3739  000A64  0E00               	movlw	0
  3740  000A66  6FAB               	movwf	(gestionserie@i_473+1)& (0+255),b
  3741  000A68  0E00               	movlw	0
  3742  000A6A  6FAA               	movwf	gestionserie@i_473& (0+255),b
  3743  000A6C  D002               	goto	l3674
  3744  000A6E                     
  3745                           ; BSR set to: 0
  3746                           
  3747                           ; BSR set to: 0
  3748  000A6E  4BAA               	infsnz	gestionserie@i_473& (0+255),f,b
  3749  000A70  2BAB               	incf	(gestionserie@i_473+1)& (0+255),f,b
  3750  000A72                     l3674:
  3751                           
  3752                           ; BSR set to: 0
  3753  000A72  0E88               	movlw	136
  3754  000A74  5DAA               	subwf	gestionserie@i_473& (0+255),w,b
  3755  000A76  0E13               	movlw	19
  3756  000A78  59AB               	subwfb	(gestionserie@i_473+1)& (0+255),w,b
  3757  000A7A  A0D8               	btfss	status,0,c
  3758  000A7C  D7F8               	goto	l395
  3759                           
  3760                           ; BSR set to: 0
  3761                           ;main.c: 678: TXREG1 = long1prov7;
  3762  000A7E  C038  FFAD         	movff	gestionserie@long1prov7,4013	;volatile
  3763                           
  3764                           ; BSR set to: 0
  3765                           ;main.c: 679: for(unsigned int i=0; i<5000; i++);
  3766  000A82  0E00               	movlw	0
  3767  000A84  6FAD               	movwf	(gestionserie@i_474+1)& (0+255),b
  3768  000A86  0E00               	movlw	0
  3769  000A88  6FAC               	movwf	gestionserie@i_474& (0+255),b
  3770  000A8A  D002               	goto	l3684
  3771  000A8C                     
  3772                           ; BSR set to: 0
  3773                           
  3774                           ; BSR set to: 0
  3775  000A8C  4BAC               	infsnz	gestionserie@i_474& (0+255),f,b
  3776  000A8E  2BAD               	incf	(gestionserie@i_474+1)& (0+255),f,b
  3777  000A90                     l3684:
  3778                           
  3779                           ; BSR set to: 0
  3780  000A90  0E88               	movlw	136
  3781  000A92  5DAC               	subwf	gestionserie@i_474& (0+255),w,b
  3782  000A94  0E13               	movlw	19
  3783  000A96  59AD               	subwfb	(gestionserie@i_474+1)& (0+255),w,b
  3784  000A98  A0D8               	btfss	status,0,c
  3785  000A9A  D7F8               	goto	l397
  3786                           
  3787                           ; BSR set to: 0
  3788                           ;main.c: 680: TXREG1 = long1prov8;
  3789  000A9C  C036  FFAD         	movff	gestionserie@long1prov8,4013	;volatile
  3790                           
  3791                           ; BSR set to: 0
  3792                           ;main.c: 681: for(unsigned int i=0; i<5000; i++);
  3793  000AA0  0E00               	movlw	0
  3794  000AA2  6FAF               	movwf	(gestionserie@i_475+1)& (0+255),b
  3795  000AA4  0E00               	movlw	0
  3796  000AA6  6FAE               	movwf	gestionserie@i_475& (0+255),b
  3797  000AA8  D002               	goto	l3694
  3798  000AAA                     
  3799                           ; BSR set to: 0
  3800                           
  3801                           ; BSR set to: 0
  3802  000AAA  4BAE               	infsnz	gestionserie@i_475& (0+255),f,b
  3803  000AAC  2BAF               	incf	(gestionserie@i_475+1)& (0+255),f,b
  3804  000AAE                     l3694:
  3805                           
  3806                           ; BSR set to: 0
  3807  000AAE  0E88               	movlw	136
  3808  000AB0  5DAE               	subwf	gestionserie@i_475& (0+255),w,b
  3809  000AB2  0E13               	movlw	19
  3810  000AB4  59AF               	subwfb	(gestionserie@i_475+1)& (0+255),w,b
  3811  000AB6  A0D8               	btfss	status,0,c
  3812  000AB8  D7F8               	goto	l399
  3813                           
  3814                           ; BSR set to: 0
  3815                           ;main.c: 682: TXREG1 = long1prov9;
  3816  000ABA  C034  FFAD         	movff	gestionserie@long1prov9,4013	;volatile
  3817                           
  3818                           ; BSR set to: 0
  3819                           ;main.c: 683: for(unsigned int i=0; i<5000; i++);
  3820  000ABE  0E00               	movlw	0
  3821  000AC0  6FB1               	movwf	(gestionserie@i_476+1)& (0+255),b
  3822  000AC2  0E00               	movlw	0
  3823  000AC4  6FB0               	movwf	gestionserie@i_476& (0+255),b
  3824  000AC6  D002               	goto	l3704
  3825  000AC8                     
  3826                           ; BSR set to: 0
  3827                           
  3828                           ; BSR set to: 0
  3829  000AC8  4BB0               	infsnz	gestionserie@i_476& (0+255),f,b
  3830  000ACA  2BB1               	incf	(gestionserie@i_476+1)& (0+255),f,b
  3831  000ACC                     l3704:
  3832                           
  3833                           ; BSR set to: 0
  3834  000ACC  0E88               	movlw	136
  3835  000ACE  5DB0               	subwf	gestionserie@i_476& (0+255),w,b
  3836  000AD0  0E13               	movlw	19
  3837  000AD2  59B1               	subwfb	(gestionserie@i_476+1)& (0+255),w,b
  3838  000AD4  A0D8               	btfss	status,0,c
  3839  000AD6  D7F8               	goto	l401
  3840                           
  3841                           ; BSR set to: 0
  3842                           ;main.c: 684: TXREG1 = E_Wprov;
  3843  000AD8  C0FD  FFAD         	movff	gestionserie@E_Wprov,4013	;volatile
  3844                           
  3845                           ; BSR set to: 0
  3846                           ;main.c: 728: mae_serie=0;
  3847  000ADC  0E00               	movlw	0
  3848  000ADE  6FFF               	movwf	gestionserie@mae_serie& (0+255),b
  3849                           
  3850                           ;main.c: 732: valideprov=0;
  3851  000AE0  0E00               	movlw	0
  3852  000AE2  6FFE               	movwf	gestionserie@valideprov& (0+255),b
  3853                           
  3854                           ;main.c: 737: E_Wprov=0;
  3855  000AE4  0E00               	movlw	0
  3856  000AE6  6FFD               	movwf	gestionserie@E_Wprov& (0+255),b
  3857                           
  3858                           ;main.c: 738: N_Sprov=0;
  3859  000AE8  0E00               	movlw	0
  3860  000AEA  6FFC               	movwf	gestionserie@N_Sprov& (0+255),b
  3861                           
  3862                           ;main.c: 743: break;
  3863  000AEC  0012               	return	
  3864  000AEE                     
  3865                           ; BSR set to: 0
  3866                           ;main.c: 745: mae_serie=0;
  3867                           
  3868                           ; BSR set to: 0
  3869  000AEE  0E00               	movlw	0
  3870  000AF0  6FFF               	movwf	gestionserie@mae_serie& (0+255),b
  3871                           
  3872                           ;main.c: 746: }
  3873  000AF2  0012               	return	
  3874  000AF4                     l168:
  3875                           
  3876                           ; BSR set to: 0
  3877                           
  3878                           ; BSR set to: 0
  3879  000AF4  51FF               	movf	gestionserie@mae_serie& (0+255),w,b
  3880                           
  3881                           ; Switch size 1, requested type "space"
  3882                           ; Number of cases is 47, Range of values is 0 to 46
  3883                           ; switch strategies available:
  3884                           ; Name         Instructions Cycles
  3885                           ; simple_byte          142    72 (average)
  3886                           ;	Chosen strategy is simple_byte
  3887  000AF6  0A00               	xorlw	0	; case 0
  3888  000AF8  B4D8               	btfsc	status,2,c
  3889  000AFA  EF70  F000         	goto	l169
  3890  000AFE  0A01               	xorlw	1	; case 1
  3891  000B00  B4D8               	btfsc	status,2,c
  3892  000B02  EF77  F000         	goto	l171
  3893  000B06  0A03               	xorlw	3	; case 2
  3894  000B08  B4D8               	btfsc	status,2,c
  3895  000B0A  EF82  F000         	goto	l173
  3896  000B0E  0A01               	xorlw	1	; case 3
  3897  000B10  B4D8               	btfsc	status,2,c
  3898  000B12  EF8D  F000         	goto	l175
  3899  000B16  0A07               	xorlw	7	; case 4
  3900  000B18  B4D8               	btfsc	status,2,c
  3901  000B1A  EF98  F000         	goto	l177
  3902  000B1E  0A01               	xorlw	1	; case 5
  3903  000B20  B4D8               	btfsc	status,2,c
  3904  000B22  EFA0  F000         	goto	l179
  3905  000B26  0A03               	xorlw	3	; case 6
  3906  000B28  B4D8               	btfsc	status,2,c
  3907  000B2A  EFB0  F000         	goto	l183
  3908  000B2E  0A01               	xorlw	1	; case 7
  3909  000B30  B4D8               	btfsc	status,2,c
  3910  000B32  EFC3  F000         	goto	l187
  3911  000B36  0A0F               	xorlw	15	; case 8
  3912  000B38  B4D8               	btfsc	status,2,c
  3913  000B3A  EFD3  F000         	goto	l191
  3914  000B3E  0A01               	xorlw	1	; case 9
  3915  000B40  B4D8               	btfsc	status,2,c
  3916  000B42  EFE3  F000         	goto	l195
  3917  000B46  0A03               	xorlw	3	; case 10
  3918  000B48  B4D8               	btfsc	status,2,c
  3919  000B4A  EFF3  F000         	goto	l199
  3920  000B4E  0A01               	xorlw	1	; case 11
  3921  000B50  B4D8               	btfsc	status,2,c
  3922  000B52  EF03  F001         	goto	l203
  3923  000B56  0A07               	xorlw	7	; case 12
  3924  000B58  B4D8               	btfsc	status,2,c
  3925  000B5A  EF0B  F001         	goto	l205
  3926  000B5E  0A01               	xorlw	1	; case 13
  3927  000B60  B4D8               	btfsc	status,2,c
  3928  000B62  EF18  F001         	goto	l207
  3929  000B66  0A03               	xorlw	3	; case 14
  3930  000B68  B4D8               	btfsc	status,2,c
  3931  000B6A  EF23  F001         	goto	l209
  3932  000B6E  0A01               	xorlw	1	; case 15
  3933  000B70  B4D8               	btfsc	status,2,c
  3934  000B72  EF33  F001         	goto	l213
  3935  000B76  0A1F               	xorlw	31	; case 16
  3936  000B78  B4D8               	btfsc	status,2,c
  3937  000B7A  EF43  F001         	goto	l217
  3938  000B7E  0A01               	xorlw	1	; case 17
  3939  000B80  B4D8               	btfsc	status,2,c
  3940  000B82  EF53  F001         	goto	l221
  3941  000B86  0A03               	xorlw	3	; case 18
  3942  000B88  B4D8               	btfsc	status,2,c
  3943  000B8A  EF63  F001         	goto	l225
  3944  000B8E  0A01               	xorlw	1	; case 19
  3945  000B90  B4D8               	btfsc	status,2,c
  3946  000B92  EF71  F001         	goto	l227
  3947  000B96  0A07               	xorlw	7	; case 20
  3948  000B98  B4D8               	btfsc	status,2,c
  3949  000B9A  EF81  F001         	goto	l231
  3950  000B9E  0A01               	xorlw	1	; case 21
  3951  000BA0  B4D8               	btfsc	status,2,c
  3952  000BA2  EF91  F001         	goto	l235
  3953  000BA6  0A03               	xorlw	3	; case 22
  3954  000BA8  B4D8               	btfsc	status,2,c
  3955  000BAA  EFA1  F001         	goto	l239
  3956  000BAE  0A01               	xorlw	1	; case 23
  3957  000BB0  B4D8               	btfsc	status,2,c
  3958  000BB2  EFB1  F001         	goto	l243
  3959  000BB6  0A0F               	xorlw	15	; case 24
  3960  000BB8  B4D8               	btfsc	status,2,c
  3961  000BBA  EFBC  F001         	goto	l245
  3962  000BBE  0A01               	xorlw	1	; case 25
  3963  000BC0  B4D8               	btfsc	status,2,c
  3964  000BC2  EFCD  F001         	goto	l247
  3965  000BC6  0A03               	xorlw	3	; case 26
  3966  000BC8  B4D8               	btfsc	status,2,c
  3967  000BCA  EFD3  F001         	goto	l249
  3968  000BCE  0A01               	xorlw	1	; case 27
  3969  000BD0  B4D8               	btfsc	status,2,c
  3970  000BD2  EFE3  F001         	goto	l253
  3971  000BD6  0A07               	xorlw	7	; case 28
  3972  000BD8  B4D8               	btfsc	status,2,c
  3973  000BDA  D405               	goto	l257
  3974  000BDC  0A01               	xorlw	1	; case 29
  3975  000BDE  B4D8               	btfsc	status,2,c
  3976  000BE0  D412               	goto	l261
  3977  000BE2  0A03               	xorlw	3	; case 30
  3978  000BE4  B4D8               	btfsc	status,2,c
  3979  000BE6  D41F               	goto	l265
  3980  000BE8  0A01               	xorlw	1	; case 31
  3981  000BEA  B4D8               	btfsc	status,2,c
  3982  000BEC  D42C               	goto	l269
  3983  000BEE  0A3F               	xorlw	63	; case 32
  3984  000BF0  B4D8               	btfsc	status,2,c
  3985  000BF2  D437               	goto	l271
  3986  000BF4  0A01               	xorlw	1	; case 33
  3987  000BF6  B4D8               	btfsc	status,2,c
  3988  000BF8  D444               	goto	l275
  3989  000BFA  0A03               	xorlw	3	; case 34
  3990  000BFC  B4D8               	btfsc	status,2,c
  3991  000BFE  D451               	goto	l279
  3992  000C00  0A01               	xorlw	1	; case 35
  3993  000C02  B4D8               	btfsc	status,2,c
  3994  000C04  D45E               	goto	l283
  3995  000C06  0A07               	xorlw	7	; case 36
  3996  000C08  B4D8               	btfsc	status,2,c
  3997  000C0A  D46B               	goto	l287
  3998  000C0C  0A01               	xorlw	1	; case 37
  3999  000C0E  B4D8               	btfsc	status,2,c
  4000  000C10  D473               	goto	l289
  4001  000C12  0A03               	xorlw	3	; case 38
  4002  000C14  B4D8               	btfsc	status,2,c
  4003  000C16  D481               	goto	l291
  4004  000C18  0A01               	xorlw	1	; case 39
  4005  000C1A  B4D8               	btfsc	status,2,c
  4006  000C1C  D486               	goto	l293
  4007  000C1E  0A0F               	xorlw	15	; case 40
  4008  000C20  B4D8               	btfsc	status,2,c
  4009  000C22  D48B               	goto	l295
  4010  000C24  0A01               	xorlw	1	; case 41
  4011  000C26  B4D8               	btfsc	status,2,c
  4012  000C28  D490               	goto	l297
  4013  000C2A  0A03               	xorlw	3	; case 42
  4014  000C2C  B4D8               	btfsc	status,2,c
  4015  000C2E  D49D               	goto	l301
  4016  000C30  0A01               	xorlw	1	; case 43
  4017  000C32  B4D8               	btfsc	status,2,c
  4018  000C34  D4AA               	goto	l305
  4019  000C36  0A07               	xorlw	7	; case 44
  4020  000C38  B4D8               	btfsc	status,2,c
  4021  000C3A  D4B7               	goto	l309
  4022  000C3C  0A01               	xorlw	1	; case 45
  4023  000C3E  B4D8               	btfsc	status,2,c
  4024  000C40  D4C4               	goto	l313
  4025  000C42  0A03               	xorlw	3	; case 46
  4026  000C44  B4D8               	btfsc	status,2,c
  4027  000C46  D4D1               	goto	l317
  4028  000C48  D752               	goto	l403
  4029  000C4A                     __end_of_gestionserie:
  4030                           	opt stack 0
  4031                           tblptru	equ	0xFF8
  4032                           postinc0	equ	0xFEE
  4033                           wreg	equ	0xFE8
  4034                           status	equ	0xFD8
  4035                           
  4036 ;; *************** function _ConfigureOscillator *****************
  4037 ;; Defined at:
  4038 ;;		line 24 in file "system.c"
  4039 ;; Parameters:    Size  Location     Type
  4040 ;;		None
  4041 ;; Auto vars:     Size  Location     Type
  4042 ;;		None
  4043 ;; Return value:  Size  Location     Type
  4044 ;;                  1    wreg      void 
  4045 ;; Registers used:
  4046 ;;		wreg, status,2
  4047 ;; Tracked objects:
  4048 ;;		On entry : 0/0
  4049 ;;		On exit  : 0/0
  4050 ;;		Unchanged: 0/0
  4051 ;; Data sizes:     COMRAM   BANK0   BANK1   BANK2   BANK3   BANK4   BANK5   BANK6   BANK7   BANK8   BANK9  BANK10  BANK1
      +1  BANK12  BANK13  BANK14  BANK15
  4052 ;;      Params:         0       0       0       0       0       0       0       0       0       0       0       0       
      +0       0       0       0       0
  4053 ;;      Locals:         0       0       0       0       0       0       0       0       0       0       0       0       
      +0       0       0       0       0
  4054 ;;      Temps:          0       0       0       0       0       0       0       0       0       0       0       0       
      +0       0       0       0       0
  4055 ;;      Totals:         0       0       0       0       0       0       0       0       0       0       0       0       
      +0       0       0       0       0
  4056 ;;Total ram usage:        0 bytes
  4057 ;; Hardware stack levels used:    1
  4058 ;; Hardware stack levels required when called:    2
  4059 ;; This function calls:
  4060 ;;		Nothing
  4061 ;; This function is called by:
  4062 ;;		_main
  4063 ;; This function uses a non-reentrant model
  4064 ;;
  4065                           
  4066                           	psect	text6
  4067  000DD8                     __ptext6:
  4068                           	opt stack 0
  4069  000DD8                     _ConfigureOscillator:
  4070                           	opt stack 28
  4071                           
  4072                           ;system.c: 27: OSCCON = 0b01010110;
  4073                           
  4074                           ; BSR set to: 0
  4075                           ;incstack = 0
  4076  000DD8  0E56               	movlw	86
  4077  000DDA  6ED3               	movwf	4051,c	;volatile
  4078  000DDC  0012               	return		;funcret
  4079  000DDE                     __end_of_ConfigureOscillator:
  4080                           	opt stack 0
  4081                           tblptru	equ	0xFF8
  4082                           postinc0	equ	0xFEE
  4083                           wreg	equ	0xFE8
  4084                           status	equ	0xFD8
  4085                           
  4086 ;; *************** function _low_isr *****************
  4087 ;; Defined at:
  4088 ;;		line 67 in file "interrupts.c"
  4089 ;; Parameters:    Size  Location     Type
  4090 ;;		None
  4091 ;; Auto vars:     Size  Location     Type
  4092 ;;		None
  4093 ;; Return value:  Size  Location     Type
  4094 ;;                  1    wreg      void 
  4095 ;; Registers used:
  4096 ;;		None
  4097 ;; Tracked objects:
  4098 ;;		On entry : 0/0
  4099 ;;		On exit  : 0/0
  4100 ;;		Unchanged: 0/0
  4101 ;; Data sizes:     COMRAM   BANK0   BANK1   BANK2   BANK3   BANK4   BANK5   BANK6   BANK7   BANK8   BANK9  BANK10  BANK1
      +1  BANK12  BANK13  BANK14  BANK15
  4102 ;;      Params:         0       0       0       0       0       0       0       0       0       0       0       0       
      +0       0       0       0       0
  4103 ;;      Locals:         0       0       0       0       0       0       0       0       0       0       0       0       
      +0       0       0       0       0
  4104 ;;      Temps:         21       0       0       0       0       0       0       0       0       0       0       0       
      +0       0       0       0       0
  4105 ;;      Totals:        21       0       0       0       0       0       0       0       0       0       0       0       
      +0       0       0       0       0
  4106 ;;Total ram usage:       21 bytes
  4107 ;; Hardware stack levels used:    1
  4108 ;; Hardware stack levels required when called:    1
  4109 ;; This function calls:
  4110 ;;		Nothing
  4111 ;; This function is called by:
  4112 ;;		Interrupt level 1
  4113 ;; This function uses a non-reentrant model
  4114 ;;
  4115                           
  4116                           	psect	intcodelo
  4117  000018                     __pintcodelo:
  4118                           	opt stack 0
  4119  000018                     _low_isr:
  4120                           	opt stack 28
  4121                           
  4122                           ;incstack = 0
  4123  000018  803A               	bsf	btemp,0,c	;set compiler interrupt flag (level 1)
  4124  00001A  CFD8 F013          	movff	status,??_low_isr
  4125  00001E  CFE8 F014          	movff	wreg,??_low_isr+1
  4126  000022  CFE0 F015          	movff	bsr,??_low_isr+2
  4127  000026  CFFA F016          	movff	pclath,??_low_isr+3
  4128  00002A  CFFB F017          	movff	pclatu,??_low_isr+4
  4129  00002E  CFE9 F018          	movff	fsr0l,??_low_isr+5
  4130  000032  CFEA F019          	movff	fsr0h,??_low_isr+6
  4131  000036  CFE1 F01A          	movff	fsr1l,??_low_isr+7
  4132  00003A  CFE2 F01B          	movff	fsr1h,??_low_isr+8
  4133  00003E  CFD9 F01C          	movff	fsr2l,??_low_isr+9
  4134  000042  CFDA F01D          	movff	fsr2h,??_low_isr+10
  4135  000046  CFF3 F01E          	movff	prodl,??_low_isr+11
  4136  00004A  CFF4 F01F          	movff	prodh,??_low_isr+12
  4137  00004E  CFF6 F020          	movff	tblptrl,??_low_isr+13
  4138  000052  CFF7 F021          	movff	tblptrh,??_low_isr+14
  4139  000056  CFF8 F022          	movff	tblptru,??_low_isr+15
  4140  00005A  CFF5 F023          	movff	tablat,??_low_isr+16
  4141  00005E  C03A  F024         	movff	btemp,??_low_isr+17
  4142  000062  C03B  F025         	movff	btemp+1,??_low_isr+18
  4143  000066  C03C  F026         	movff	btemp+2,??_low_isr+19
  4144  00006A  C03D  F027         	movff	btemp+3,??_low_isr+20
  4145  00006E  C027  F03D         	movff	??_low_isr+20,btemp+3
  4146  000072  C026  F03C         	movff	??_low_isr+19,btemp+2
  4147  000076  C025  F03B         	movff	??_low_isr+18,btemp+1
  4148  00007A  C024  F03A         	movff	??_low_isr+17,btemp
  4149  00007E  C023  FFF5         	movff	??_low_isr+16,tablat
  4150  000082  C022  FFF8         	movff	??_low_isr+15,tblptru
  4151  000086  C021  FFF7         	movff	??_low_isr+14,tblptrh
  4152  00008A  C020  FFF6         	movff	??_low_isr+13,tblptrl
  4153  00008E  C01F  FFF4         	movff	??_low_isr+12,prodh
  4154  000092  C01E  FFF3         	movff	??_low_isr+11,prodl
  4155  000096  C01D  FFDA         	movff	??_low_isr+10,fsr2h
  4156  00009A  C01C  FFD9         	movff	??_low_isr+9,fsr2l
  4157  00009E  C01B  FFE2         	movff	??_low_isr+8,fsr1h
  4158  0000A2  C01A  FFE1         	movff	??_low_isr+7,fsr1l
  4159  0000A6  C019  FFEA         	movff	??_low_isr+6,fsr0h
  4160  0000AA  C018  FFE9         	movff	??_low_isr+5,fsr0l
  4161  0000AE  C017  FFFB         	movff	??_low_isr+4,pclatu
  4162  0000B2  C016  FFFA         	movff	??_low_isr+3,pclath
  4163  0000B6  C015  FFE0         	movff	??_low_isr+2,bsr
  4164  0000BA  C014  FFE8         	movff	??_low_isr+1,wreg
  4165  0000BE  C013  FFD8         	movff	??_low_isr,status
  4166  0000C2  903A               	bcf	btemp,0,c	;clear compiler interrupt flag (level 1)
  4167  0000C4  0010               	retfie	
  4168  0000C6                     __end_of_low_isr:
  4169                           	opt stack 0
  4170                           pclatu	equ	0xFFB
  4171                           pclath	equ	0xFFA
  4172                           tblptru	equ	0xFF8
  4173                           tblptrh	equ	0xFF7
  4174                           tblptrl	equ	0xFF6
  4175                           tablat	equ	0xFF5
  4176                           prodh	equ	0xFF4
  4177                           prodl	equ	0xFF3
  4178                           postinc0	equ	0xFEE
  4179                           fsr0h	equ	0xFEA
  4180                           fsr0l	equ	0xFE9
  4181                           wreg	equ	0xFE8
  4182                           fsr1h	equ	0xFE2
  4183                           fsr1l	equ	0xFE1
  4184                           bsr	equ	0xFE0
  4185                           fsr2h	equ	0xFDA
  4186                           fsr2l	equ	0xFD9
  4187                           status	equ	0xFD8
  4188                           
  4189 ;; *************** function _high_isr *****************
  4190 ;; Defined at:
  4191 ;;		line 27 in file "interrupts.c"
  4192 ;; Parameters:    Size  Location     Type
  4193 ;;		None
  4194 ;; Auto vars:     Size  Location     Type
  4195 ;;		None
  4196 ;; Return value:  Size  Location     Type
  4197 ;;                  1    wreg      void 
  4198 ;; Registers used:
  4199 ;;		None
  4200 ;; Tracked objects:
  4201 ;;		On entry : 0/0
  4202 ;;		On exit  : 0/0
  4203 ;;		Unchanged: 0/0
  4204 ;; Data sizes:     COMRAM   BANK0   BANK1   BANK2   BANK3   BANK4   BANK5   BANK6   BANK7   BANK8   BANK9  BANK10  BANK1
      +1  BANK12  BANK13  BANK14  BANK15
  4205 ;;      Params:         0       0       0       0       0       0       0       0       0       0       0       0       
      +0       0       0       0       0
  4206 ;;      Locals:         0       0       0       0       0       0       0       0       0       0       0       0       
      +0       0       0       0       0
  4207 ;;      Temps:         18       0       0       0       0       0       0       0       0       0       0       0       
      +0       0       0       0       0
  4208 ;;      Totals:        18       0       0       0       0       0       0       0       0       0       0       0       
      +0       0       0       0       0
  4209 ;;Total ram usage:       18 bytes
  4210 ;; Hardware stack levels used:    1
  4211 ;; This function calls:
  4212 ;;		Nothing
  4213 ;; This function is called by:
  4214 ;;		Interrupt level 2
  4215 ;; This function uses a non-reentrant model
  4216 ;;
  4217                           
  4218                           	psect	intcode
  4219  000008                     __pintcode:
  4220                           	opt stack 0
  4221  000008                     _high_isr:
  4222                           	opt stack 28
  4223                           
  4224                           ;incstack = 0
  4225  000008  823A               	bsf	btemp,1,c	;set compiler interrupt flag (level 2)
  4226  00000A  EF6F  F006         	goto	int_func
  4227                           pclatu	equ	0xFFB
  4228                           pclath	equ	0xFFA
  4229                           tblptru	equ	0xFF8
  4230                           tblptrh	equ	0xFF7
  4231                           tblptrl	equ	0xFF6
  4232                           tablat	equ	0xFF5
  4233                           prodh	equ	0xFF4
  4234                           prodl	equ	0xFF3
  4235                           postinc0	equ	0xFEE
  4236                           fsr0h	equ	0xFEA
  4237                           fsr0l	equ	0xFE9
  4238                           wreg	equ	0xFE8
  4239                           fsr1h	equ	0xFE2
  4240                           fsr1l	equ	0xFE1
  4241                           bsr	equ	0xFE0
  4242                           fsr2h	equ	0xFDA
  4243                           fsr2l	equ	0xFD9
  4244                           status	equ	0xFD8
  4245                           
  4246                           	psect	intcode_body
  4247  000CDE                     __pintcode_body:
  4248                           	opt stack 28
  4249  000CDE                     int_func:
  4250                           	opt stack 28
  4251  000CDE  CFFA F001          	movff	pclath,??_high_isr
  4252  000CE2  CFFB F002          	movff	pclatu,??_high_isr+1
  4253  000CE6  CFE9 F003          	movff	fsr0l,??_high_isr+2
  4254  000CEA  CFEA F004          	movff	fsr0h,??_high_isr+3
  4255  000CEE  CFE1 F005          	movff	fsr1l,??_high_isr+4
  4256  000CF2  CFE2 F006          	movff	fsr1h,??_high_isr+5
  4257  000CF6  CFD9 F007          	movff	fsr2l,??_high_isr+6
  4258  000CFA  CFDA F008          	movff	fsr2h,??_high_isr+7
  4259  000CFE  CFF3 F009          	movff	prodl,??_high_isr+8
  4260  000D02  CFF4 F00A          	movff	prodh,??_high_isr+9
  4261  000D06  CFF6 F00B          	movff	tblptrl,??_high_isr+10
  4262  000D0A  CFF7 F00C          	movff	tblptrh,??_high_isr+11
  4263  000D0E  CFF8 F00D          	movff	tblptru,??_high_isr+12
  4264  000D12  CFF5 F00E          	movff	tablat,??_high_isr+13
  4265  000D16  C03A  F00F         	movff	btemp,??_high_isr+14
  4266  000D1A  C03B  F010         	movff	btemp+1,??_high_isr+15
  4267  000D1E  C03C  F011         	movff	btemp+2,??_high_isr+16
  4268  000D22  C03D  F012         	movff	btemp+3,??_high_isr+17
  4269  000D26  C012  F03D         	movff	??_high_isr+17,btemp+3
  4270  000D2A  C011  F03C         	movff	??_high_isr+16,btemp+2
  4271  000D2E  C010  F03B         	movff	??_high_isr+15,btemp+1
  4272  000D32  C00F  F03A         	movff	??_high_isr+14,btemp
  4273  000D36  C00E  FFF5         	movff	??_high_isr+13,tablat
  4274  000D3A  C00D  FFF8         	movff	??_high_isr+12,tblptru
  4275  000D3E  C00C  FFF7         	movff	??_high_isr+11,tblptrh
  4276  000D42  C00B  FFF6         	movff	??_high_isr+10,tblptrl
  4277  000D46  C00A  FFF4         	movff	??_high_isr+9,prodh
  4278  000D4A  C009  FFF3         	movff	??_high_isr+8,prodl
  4279  000D4E  C008  FFDA         	movff	??_high_isr+7,fsr2h
  4280  000D52  C007  FFD9         	movff	??_high_isr+6,fsr2l
  4281  000D56  C006  FFE2         	movff	??_high_isr+5,fsr1h
  4282  000D5A  C005  FFE1         	movff	??_high_isr+4,fsr1l
  4283  000D5E  C004  FFEA         	movff	??_high_isr+3,fsr0h
  4284  000D62  C003  FFE9         	movff	??_high_isr+2,fsr0l
  4285  000D66  C002  FFFB         	movff	??_high_isr+1,pclatu
  4286  000D6A  C001  FFFA         	movff	??_high_isr,pclath
  4287  000D6E  923A               	bcf	btemp,1,c	;clear compiler interrupt flag (level 2)
  4288  000D70  0011               	retfie		f
  4289  000D72                     __end_of_high_isr:
  4290                           	opt stack 0
  4291  0000                     pclatu	equ	0xFFB
  4292                           pclath	equ	0xFFA
  4293                           tblptru	equ	0xFF8
  4294                           tblptrh	equ	0xFF7
  4295                           tblptrl	equ	0xFF6
  4296                           tablat	equ	0xFF5
  4297                           prodh	equ	0xFF4
  4298                           prodl	equ	0xFF3
  4299                           postinc0	equ	0xFEE
  4300                           fsr0h	equ	0xFEA
  4301                           fsr0l	equ	0xFE9
  4302                           wreg	equ	0xFE8
  4303                           fsr1h	equ	0xFE2
  4304                           fsr1l	equ	0xFE1
  4305                           bsr	equ	0xFE0
  4306                           fsr2h	equ	0xFDA
  4307                           fsr2l	equ	0xFD9
  4308                           status	equ	0xFD8
  4309                           pclatu	equ	0xFFB
  4310                           pclath	equ	0xFFA
  4311                           tblptru	equ	0xFF8
  4312                           tblptrh	equ	0xFF7
  4313                           tblptrl	equ	0xFF6
  4314                           tablat	equ	0xFF5
  4315                           prodh	equ	0xFF4
  4316                           prodl	equ	0xFF3
  4317                           postinc0	equ	0xFEE
  4318                           fsr0h	equ	0xFEA
  4319                           fsr0l	equ	0xFE9
  4320                           wreg	equ	0xFE8
  4321                           fsr1h	equ	0xFE2
  4322                           fsr1l	equ	0xFE1
  4323                           bsr	equ	0xFE0
  4324                           fsr2h	equ	0xFDA
  4325                           fsr2l	equ	0xFD9
  4326                           status	equ	0xFD8
  4327                           
  4328                           	psect	rparam
  4329  0000                     pclatu	equ	0xFFB
  4330                           pclath	equ	0xFFA
  4331                           tblptru	equ	0xFF8
  4332                           tblptrh	equ	0xFF7
  4333                           tblptrl	equ	0xFF6
  4334                           tablat	equ	0xFF5
  4335                           prodh	equ	0xFF4
  4336                           prodl	equ	0xFF3
  4337                           postinc0	equ	0xFEE
  4338                           fsr0h	equ	0xFEA
  4339                           fsr0l	equ	0xFE9
  4340                           wreg	equ	0xFE8
  4341                           fsr1h	equ	0xFE2
  4342                           fsr1l	equ	0xFE1
  4343                           bsr	equ	0xFE0
  4344                           fsr2h	equ	0xFDA
  4345                           fsr2l	equ	0xFD9
  4346                           status	equ	0xFD8
  4347                           
  4348                           	psect	temp
  4349  00003A                     btemp:
  4350                           	opt stack 0
  4351  00003A                     	ds	1
  4352  0000                     int$flags	set	btemp
  4353  0000                     wtemp6	set	btemp+1
  4354                           pclatu	equ	0xFFB
  4355                           pclath	equ	0xFFA
  4356                           tblptru	equ	0xFF8
  4357                           tblptrh	equ	0xFF7
  4358                           tblptrl	equ	0xFF6
  4359                           tablat	equ	0xFF5
  4360                           prodh	equ	0xFF4
  4361                           prodl	equ	0xFF3
  4362                           postinc0	equ	0xFEE
  4363                           fsr0h	equ	0xFEA
  4364                           fsr0l	equ	0xFE9
  4365                           wreg	equ	0xFE8
  4366                           fsr1h	equ	0xFE2
  4367                           fsr1l	equ	0xFE1
  4368                           bsr	equ	0xFE0
  4369                           fsr2h	equ	0xFDA
  4370                           fsr2l	equ	0xFD9
  4371                           status	equ	0xFD8


Data Sizes:
    Strings     0
    Constant    0
    Data        0
    BSS         66
    Persistent  0
    Stack       0

Auto Spaces:
    Space          Size  Autos    Used
    COMRAM           94     39      57
    BANK0           160    112     160
    BANK1           256      0       0
    BANK2           256      0       0
    BANK3           256      0       0
    BANK4           256      0       0
    BANK5           256      0       0
    BANK6           256      0       0
    BANK7           256      0       0
    BANK8           256      0       0
    BANK9           256      0       0
    BANK10          256      0       0
    BANK11          256      0       0
    BANK12          256      0       0
    BANK13          256      0       0
    BANK14          256      0       0
    BANK15           56      0       0

Pointer List with Targets:

    main@day	PTR unsigned char  size(2) Largest target is 0
		 -> NULL(NULL[0]), 

    main@month	PTR unsigned char  size(2) Largest target is 0
		 -> NULL(NULL[0]), 

    main@year	PTR unsigned char  size(2) Largest target is 0
		 -> NULL(NULL[0]), 

    main@N_S	PTR unsigned char  size(2) Largest target is 0
		 -> NULL(NULL[0]), 

    main@E_W	PTR unsigned char  size(2) Largest target is 0
		 -> NULL(NULL[0]), 

    main@long2	PTR unsigned char  size(2) Largest target is 0
		 -> NULL(NULL[0]), 

    main@long1	PTR unsigned char  size(2) Largest target is 0
		 -> NULL(NULL[0]), 

    main@lat2	PTR unsigned char  size(2) Largest target is 0
		 -> NULL(NULL[0]), 

    main@lat1	PTR unsigned char  size(2) Largest target is 0
		 -> NULL(NULL[0]), 

    main@valide	PTR unsigned char  size(2) Largest target is 0
		 -> NULL(NULL[0]), 

    main@seconde	PTR unsigned char  size(2) Largest target is 0
		 -> NULL(NULL[0]), 

    main@minute	PTR unsigned char  size(2) Largest target is 0
		 -> NULL(NULL[0]), 

    main@heure	PTR unsigned char  size(2) Largest target is 0
		 -> NULL(NULL[0]), 


Critical Paths under _main in COMRAM

    None.

Critical Paths under _low_isr in COMRAM

    None.

Critical Paths under _high_isr in COMRAM

    None.

Critical Paths under _main in BANK0

    _main->_gestionserie

Critical Paths under _low_isr in BANK0

    None.

Critical Paths under _high_isr in BANK0

    None.

Critical Paths under _main in BANK1

    None.

Critical Paths under _low_isr in BANK1

    None.

Critical Paths under _high_isr in BANK1

    None.

Critical Paths under _main in BANK2

    None.

Critical Paths under _low_isr in BANK2

    None.

Critical Paths under _high_isr in BANK2

    None.

Critical Paths under _main in BANK3

    None.

Critical Paths under _low_isr in BANK3

    None.

Critical Paths under _high_isr in BANK3

    None.

Critical Paths under _main in BANK4

    None.

Critical Paths under _low_isr in BANK4

    None.

Critical Paths under _high_isr in BANK4

    None.

Critical Paths under _main in BANK5

    None.

Critical Paths under _low_isr in BANK5

    None.

Critical Paths under _high_isr in BANK5

    None.

Critical Paths under _main in BANK6

    None.

Critical Paths under _low_isr in BANK6

    None.

Critical Paths under _high_isr in BANK6

    None.

Critical Paths under _main in BANK7

    None.

Critical Paths under _low_isr in BANK7

    None.

Critical Paths under _high_isr in BANK7

    None.

Critical Paths under _main in BANK8

    None.

Critical Paths under _low_isr in BANK8

    None.

Critical Paths under _high_isr in BANK8

    None.

Critical Paths under _main in BANK9

    None.

Critical Paths under _low_isr in BANK9

    None.

Critical Paths under _high_isr in BANK9

    None.

Critical Paths under _main in BANK10

    None.

Critical Paths under _low_isr in BANK10

    None.

Critical Paths under _high_isr in BANK10

    None.

Critical Paths under _main in BANK11

    None.

Critical Paths under _low_isr in BANK11

    None.

Critical Paths under _high_isr in BANK11

    None.

Critical Paths under _main in BANK12

    None.

Critical Paths under _low_isr in BANK12

    None.

Critical Paths under _high_isr in BANK12

    None.

Critical Paths under _main in BANK13

    None.

Critical Paths under _low_isr in BANK13

    None.

Critical Paths under _high_isr in BANK13

    None.

Critical Paths under _main in BANK14

    None.

Critical Paths under _low_isr in BANK14

    None.

Critical Paths under _high_isr in BANK14

    None.

Critical Paths under _main in BANK15

    None.

Critical Paths under _low_isr in BANK15

    None.

Critical Paths under _high_isr in BANK15

    None.

Call Graph Tables:

 ---------------------------------------------------------------------------------
 (Depth) Function   	        Calls       Base Space   Used Autos Params    Refs
 ---------------------------------------------------------------------------------
 (0) _main                                                29    29      0    6280
                                             83 BANK0     29    29      0
                _ConfigureOscillator
                       _gestionserie
                               _init
                         _init_Timer
                        _init_eusart
                           _init_spi
 ---------------------------------------------------------------------------------
 (1) _init_spi                                             0     0      0       0
 ---------------------------------------------------------------------------------
 (1) _init_eusart                                          0     0      0       0
 ---------------------------------------------------------------------------------
 (1) _init_Timer                                           0     0      0       0
 ---------------------------------------------------------------------------------
 (1) _init                                                 0     0      0       0
 ---------------------------------------------------------------------------------
 (1) _gestionserie                                       107   107      0    6235
                                              0 BANK0     83    83      0
 ---------------------------------------------------------------------------------
 (1) _ConfigureOscillator                                  0     0      0       0
 ---------------------------------------------------------------------------------
 Estimated maximum stack depth 1
 ---------------------------------------------------------------------------------
 (Depth) Function   	        Calls       Base Space   Used Autos Params    Refs
 ---------------------------------------------------------------------------------
 (2) _low_isr                                             21    21      0       0
                                             18 COMRAM    21    21      0
 ---------------------------------------------------------------------------------
 Estimated maximum stack depth 2
 ---------------------------------------------------------------------------------
 (Depth) Function   	        Calls       Base Space   Used Autos Params    Refs
 ---------------------------------------------------------------------------------
 (3) _high_isr                                            18    18      0       0
                                              0 COMRAM    18    18      0
 ---------------------------------------------------------------------------------
 Estimated maximum stack depth 3
 ---------------------------------------------------------------------------------

 Call Graph Graphs:

 _main (ROOT)
   _ConfigureOscillator
   _gestionserie
   _init
   _init_Timer
   _init_eusart
   _init_spi

 _low_isr (ROOT)

 _high_isr (ROOT)

 Address spaces:
Name               Size   Autos  Total    Cost      Usage
BIGRAM             F37      0       0      37        0.0%
EEDATA             400      0       0       0        0.0%
BITBANK14          100      0       0      33        0.0%
BANK14             100      0       0      34        0.0%
BITBANK13          100      0       0      31        0.0%
BANK13             100      0       0      32        0.0%
BITBANK12          100      0       0      29        0.0%
BANK12             100      0       0      30        0.0%
BITBANK11          100      0       0      27        0.0%
BANK11             100      0       0      28        0.0%
BITBANK10          100      0       0      25        0.0%
BANK10             100      0       0      26        0.0%
BITBANK9           100      0       0      23        0.0%
BANK9              100      0       0      24        0.0%
BITBANK8           100      0       0      21        0.0%
BANK8              100      0       0      22        0.0%
BITBANK7           100      0       0      19        0.0%
BANK7              100      0       0      20        0.0%
BITBANK6           100      0       0      17        0.0%
BANK6              100      0       0      18        0.0%
BITBANK5           100      0       0      15        0.0%
BANK5              100      0       0      16        0.0%
BITBANK4           100      0       0      13        0.0%
BANK4              100      0       0      14        0.0%
BITBANK3           100      0       0      10        0.0%
BANK3              100      0       0      11        0.0%
BITBANK2           100      0       0       8        0.0%
BANK2              100      0       0       9        0.0%
BITBANK1           100      0       0       6        0.0%
BANK1              100      0       0       7        0.0%
BITBANK0            A0      0       0       4        0.0%
BANK0               A0     70      A0       5      100.0%
BITCOMRAM           5E      0       0       0        0.0%
COMRAM              5E     27      39       1       60.6%
BITBANK15           38      0       0      35        0.0%
BANK15              38      0       0      36        0.0%
BITSFR_1             0      0       0     200        0.0%
SFR_1                0      0       0     200        0.0%
BITSFR               0      0       0     200        0.0%
SFR                  0      0       0     200        0.0%
STACK                0      0       0       2        0.0%
NULL                 0      0       0       0        0.0%
ABS                  0      0      D9      12        0.0%
DATA                 0      0      D9       3        0.0%
CODE                 0      0       0       0        0.0%


Microchip Technology PIC18 Macro Assembler V1.44 build -154322312 
Symbol Table                                                                                   Fri Jan 19 11:30:43 2018

                            bsr 000FE0                    __CFG_CP0$OFF 000000                    __CFG_CP1$OFF 000000  
                  __CFG_CP2$OFF 000000                    __CFG_CP3$OFF 000000                             l200 01FC  
                           l210 025C                             l203 0206                             l301 056A  
                           l221 02A6                             l213 0266                             l205 0216  
                           l310 05C0                             l302 0580                             l222 02BC  
                           l214 027C                             l206 0228                             l231 0302  
                           l207 0230                             l240 0358                             l232 0318  
                           l208 0240                             l401 0AC8                             l321 0618  
                           l313 05CA                             l305 058A                             l225 02C6  
                           l217 0286                             l209 0246                             l314 05E0  
                           l306 05A0                             l250 03BC                             l226 02D8  
                           l218 029C                             l403 0AEE                             l323 0636  
                           l243 0362                             l235 0322                             l227 02E2  
                           l171 00EE                             l244 0374                             l236 0338  
                           l228 02F8                             l180 0156                             l172 00FE  
                           l341 0744                             l333 06CC                             l317 05EA  
                           l309 05AA                             l261 0406                             l253 03C6  
                           l245 0378                             l173 0104                             l318 0604  
                           l270 0458                             l262 041C                             l254 03DC  
                           l246 0392                             l174 0114                             l351 07DA  
                           l343 0762                             l335 06EA                             l327 0672  
                           l271 0462                             l247 039A                             l239 0342  
                           l191 01A6                             l183 0160                             l175 011A  
                           l168 0AF4                             l280 04B8                             l272 0478  
                           l192 01BC                             l184 0176                             l176 012A  
                           l408 0CD4                             l353 07F8                             l345 0780  
                           l329 0690                             l265 0426                             l257 03E6  
                           l249 03A6                             l177 0130                             l169 00E0  
                           l290 0512                             l266 043C                             l258 03FC  
                           l371 0906                             l363 088E                             l355 0816  
                           l347 079E                             l291 051A                             l283 04C2  
                           l275 0482                             l195 01C6                             l187 0186  
                           l179 0140                             l284 04D8                             l276 0498  
                           l196 01DC                             l188 019C                             l381 099C  
                           l365 08AC                             l357 0834                             l349 07BC  
                           l293 052A                             l269 0446                             l391 0A32  
                           l383 09BA                             l375 0942                             l359 0852  
                           l295 053A                             l287 04E2                             l279 04A2  
                           l199 01E6                             l288 04F4                             l393 0A50  
                           l385 09D8                             l377 0960                             l369 08E8  
                           l297 054A                             l289 04F8                             l298 0560  
                           l395 0A6E                             l387 09F6                             l397 0A8C  
                           l389 0A14                             l399 0AAA                    __CFG_CPB$OFF 000000  
                  __CFG_CPD$OFF 000000                             wreg 000FE8                      _TXSTA1bits 000FAC  
                  __CFG_LVP$OFF 000000                            l3304 061C                            l3314 063A  
                          l3404 0748                            l3414 0766                            l3334 0676  
                          l3318 0652                            l3424 0784                            l3344 0694  
                          l3514 0892                            l3434 07A2                            l3604 09A0  
                          l3524 08B0                            l3444 07C0                            l3364 06D0  
                          l3348 06AC                            l3614 09BE                            l3454 07DE  
                          l3374 06EE                            l3704 0ACC                            l3624 09DC  
                          l3544 08EC                            l3528 08C8                            l3464 07FC  
                          l3634 09FA                            l3554 090A                            l3474 081A  
                          l3378 0706                            l3644 0A18                            l3484 0838  
                          l3388 0724                            l3654 0A36                            l3574 0946  
                          l3558 0922                            l3494 0856                            l3664 0A54  
                          l3584 0964                            l3674 0A72                            l3498 086E  
                          l3684 0A90                            l3588 097C                            l3694 0AAE  
                          u4010 05FA                            u3310 0150                            u4210 0736  
                          u4130 06BE                            u3410 01F6                            u3330 0170  
                          u3500 0296                            u4070 0664                            u3350 0196  
                          u3520 02B6                            u3610 0352                            u3370 01B6  
                          u3700 03F6                            u3460 0256                            u4430 0880  
                          u4190 0718                            u3550 02F2                            u3390 01D6  
                          u3720 0416                            u3480 0276                            u4610 098E  
                          u3810 04B2                            u3570 0312                            u3740 0436  
                          u3660 03B6                            u4550 0934                            u3910 055A  
                          u3830 04D2                            u3590 0332                            u3680 03D6  
                          u4490 08DA                            u3930 057A                            u3770 0472  
                          u3950 059A                            u3790 0492                            u3970 05BA  
                          u3990 05DA                     main@seconde 00B7                            _main 0C4A  
                          _init 0DC0                            fsr0h 000FEA                            fsr1h 000FE2  
                          fsr2h 000FDA                            fsr0l 000FE9                            fsr1l 000FE1  
                          fsr2l 000FD9                            btemp 003A                   __CFG_BORV$190 000000  
                          prodh 000FF4                            prodl 000FF3                            start 00C6  
                 __CFG_IESO$OFF 000000                    ___param_bank 000000                   ?_gestionserie 0001  
                         ?_main 0001                           ?_init 0001                           _T0CON 000FD5  
                         _TMR0L 000FD6                           _TRISA 000F92                           _TRISB 000F93  
                         _TRISC 000F94                    ?_init_eusart 0001             _ConfigureOscillator 0DD8  
                 __CFG_WRT0$OFF 000000                   __CFG_WRT1$OFF 000000                   __CFG_WRT2$OFF 000000  
                 __CFG_WRT3$OFF 000000                  __CFG_EBTR0$OFF 000000                  __CFG_FCMEN$OFF 000000  
                __CFG_EBTR1$OFF 000000                  __CFG_EBTR2$OFF 000000                  __CFG_EBTR3$OFF 000000  
                 __CFG_WRTB$OFF 000000                   __CFG_WRTC$OFF 000000                   __CFG_WRTD$OFF 000000  
                __CFG_EBTRB$OFF 000000              __CFG_MCLRE$INTMCLR 000000    gestionserie@heureDizaineprov 00FA  
               __end_of_low_isr 00C6                           pclath 000FFA    gestionserie@secondeUniteprov 00F0  
                         tablat 000FF5                           status 000FD8                           wtemp6 003B  
                __CFG_HFOFST$ON 000000                  __CFG_PBADEN$ON 000000            ?_ConfigureOscillator 0001  
               __initialization 0D72                    __end_of_main 0CDE                    __end_of_init 0DCE  
                ??_gestionserie 0060                          ??_main 00B3                          ??_init 0060  
                 __activetblptr 000002  gestionserie@secondeDizaineprov 00F2                          _ANSELC 000F3A  
                __CFG_WDTEN$OFF 000000                          _RCREG1 000FAE                          _RCSTA1 000FAB  
                        _OSCCON 000FD3                          _SPBRG1 000FAF                          _SSPBUF 000FC9  
                        _TXREG1 000FAD                          _TXSTA1 000FAC           ??_ConfigureOscillator 0060  
                __CFG_XINST$OFF 000000                __end_of_high_isr 0D72      gestionserie@heureUniteprov 00F8  
                __CFG_STVREN$ON 000000                __end_of_init_spi 0DC0                          clear_0 0D78  
                        clear_1 0D84     gestionserie@minuteUniteprov 00F6                       ??_low_isr 0013  
                        tblptrh 000FF7                          tblptrl 000FF6                          tblptru 000FF8  
                    __accesstop 0060         __end_of__initialization 0D8A                   ___rparam_used 000001  
                __pcstackCOMRAM 0001     gestionserie@yearDizaineprov 002A            __size_of_init_eusart 0018  
                    __pbssBANK0 00D0            __end_of_gestionserie 0C4A                 __CFG_PLLCFG$OFF 000000  
            __CFG_CCP2MX$PORTC1 000000              __CFG_CCP3MX$PORTB5 000000        gestionserie@dayUniteprov 0030  
                       _SSPCON1 000FC6                       ?_high_isr 0001      gestionserie@monthUniteprov 002C  
                     ?_init_spi 0001                 __CFG_PWRTEN$OFF 000000                         __Hparam 0000  
                       __Lparam 0000                      _init_Timer 0DCE                         __pcinit 0D72  
                       __ramtop 1000                         __ptext0 0C4A                         __ptext1 0DB0  
                       __ptext2 0D98                         __ptext3 0DCE                         __ptext4 0DC0  
                       __ptext5 00CA                         __ptext6 0DD8           gestionserie@lat1prov1 00EE  
         gestionserie@lat1prov2 00EC           gestionserie@lat1prov3 00EA           gestionserie@lat1prov4 00E8  
         gestionserie@lat1prov5 00E4           gestionserie@lat1prov6 00E2           gestionserie@lat1prov7 00E0  
         gestionserie@lat1prov8 00DE           gestionserie@lat1provP 00E6                         _low_isr 0018  
                       main@E_W 00C3                         main@N_S 00C5                         main@day 00CB  
                       main@cpt 00CD                      ??_high_isr 0001                  __pintcode_body 0CDE  
         gestionserie@mae_serie 00FF            end_of_initialization 0D8A                   __Lmediumconst 0000  
                       int_func 0CDE                      ??_init_spi 0060               gestionserie@i_440 0068  
             gestionserie@i_441 006A               gestionserie@i_450 007C               gestionserie@i_442 006C  
             gestionserie@i_451 007E               gestionserie@i_443 006E               gestionserie@i_460 0090  
             gestionserie@i_452 0080               gestionserie@i_444 0070               gestionserie@i_461 0092  
             gestionserie@i_453 0082               gestionserie@i_445 0072               gestionserie@i_437 0062  
             gestionserie@i_470 00A4               gestionserie@i_462 0094               gestionserie@i_454 0084  
             gestionserie@i_446 0074               gestionserie@i_438 0064               gestionserie@i_471 00A6  
             gestionserie@i_463 0096               gestionserie@i_455 0086               gestionserie@i_447 0076  
             gestionserie@i_439 0066               gestionserie@i_472 00A8               gestionserie@i_464 0098  
             gestionserie@i_456 0088               gestionserie@i_448 0078               gestionserie@i_473 00AA  
             gestionserie@i_465 009A               gestionserie@i_457 008A               gestionserie@i_449 007A  
             gestionserie@i_474 00AC               gestionserie@i_466 009C               gestionserie@i_458 008C  
             gestionserie@i_475 00AE               gestionserie@i_467 009E               gestionserie@i_459 008E  
             gestionserie@i_476 00B0               gestionserie@i_468 00A0               gestionserie@i_469 00A2  
                 gestionserie@i 0060                         postinc0 000FEE           __size_of_gestionserie 0B80  
   __end_of_ConfigureOscillator 0DDE                      main@minute 00B5                      main@valide 00B9  
                   ?_init_Timer 0001                    _gestionserie 00CA             start_initialization 0D72  
     gestionserie@yearUniteprov 0028                   ??_init_eusart 0060                     __pbssCOMRAM 0028  
                 __pcstackBANK0 0060             __size_of_init_Timer 000A               __size_of_high_isr 0D6A  
             __size_of_init_spi 0010                       __pintcode 0008                     __pintcodelo 0018  
              __CFG_PRICLKEN$ON 000000                        _BAUDCON1 000FB8                        ?_low_isr 0001  
           __end_of_init_eusart 0DB0                        _LATCbits 000F8B                        _PIR1bits 000F9E  
              __CFG_WDTPS$32768 000000   gestionserie@minuteDizaineprov 00F4                       main@heure 00B3  
                     main@long1 00BF                       main@long2 00C1                       main@month 00C9  
                      __Hrparam 0000                        __Lrparam 0000              __CFG_BOREN$SBORDIS 000000  
             __CFG_P2BMX$PORTB5 000000                    ??_init_Timer 0060    gestionserie@monthDizaineprov 002E  
           gestionserie@E_Wprov 00FD             gestionserie@N_Sprov 00FC                     _init_eusart 0D98  
              __size_of_low_isr 00AE                        _high_isr 0008              __end_of_init_Timer 0DD8  
                 __size_of_main 0094                   __size_of_init 000E                        _init_spi 0DB0  
  __size_of_ConfigureOscillator 0006                        int$flags 003A                        main@Data 00CF  
                      main@lat1 00BB                        main@lat2 00BD                    _SSP1STATbits 000FC7  
                      main@year 00C7      gestionserie@dayDizaineprov 0032                        intlevel1 0000  
                      intlevel2 0000          gestionserie@long1prov1 00DC          gestionserie@long1prov2 00DA  
        gestionserie@long1prov3 00D8          gestionserie@long1prov4 00D6          gestionserie@long1prov5 00D4  
        gestionserie@long1prov6 00D0          gestionserie@long1prov7 0038          gestionserie@long1prov8 0036  
        gestionserie@long1prov9 0034          gestionserie@long1provP 00D2                  gestionserie@ch 00B2  
             __CFG_T3CMX$PORTC0 000000          gestionserie@valideprov 00FE               __CFG_FOSC$INTIO67 000000  
